
DE0-LCD.elf:     file format elf32-littlenios2
DE0-LCD.elf
architecture: nios2, flags 0x00000112:
EXEC_P, HAS_SYMS, D_PAGED
start address 0x0401022c

Program Header:
    LOAD off    0x00001000 vaddr 0x04010000 paddr 0x04010000 align 2**12
         filesz 0x00000020 memsz 0x00000020 flags r-x
    LOAD off    0x00001020 vaddr 0x04010020 paddr 0x04010020 align 2**12
         filesz 0x0000842c memsz 0x0000842c flags r-x
    LOAD off    0x0000944c vaddr 0x0401844c paddr 0x04018770 align 2**12
         filesz 0x00000324 memsz 0x00000324 flags rw-
    LOAD off    0x00009a94 vaddr 0x04018a94 paddr 0x04018a94 align 2**12
         filesz 0x00000000 memsz 0x00000874 flags rw-

Sections:
Idx Name          Size      VMA       LMA       File off  Algn
  0 .entry        00000020  04010000  04010000  00001000  2**5
                  CONTENTS, ALLOC, LOAD, READONLY, CODE
  1 .exceptions   0000020c  04010020  04010020  00001020  2**2
                  CONTENTS, ALLOC, LOAD, READONLY, CODE
  2 .text         00008068  0401022c  0401022c  0000122c  2**2
                  CONTENTS, ALLOC, LOAD, READONLY, CODE
  3 .rodata       000001b8  04018294  04018294  00009294  2**2
                  CONTENTS, ALLOC, LOAD, READONLY, DATA
  4 .rwdata       00000324  0401844c  04018770  0000944c  2**2
                  CONTENTS, ALLOC, LOAD, DATA, SMALL_DATA
  5 .bss          00000874  04018a94  04018a94  00009a94  2**2
                  ALLOC, SMALL_DATA
  6 .comment      00000023  00000000  00000000  00009770  2**0
                  CONTENTS, READONLY
  7 .debug_aranges 00000740  00000000  00000000  00009798  2**3
                  CONTENTS, READONLY, DEBUGGING
  8 .debug_pubnames 00000ed8  00000000  00000000  00009ed8  2**0
                  CONTENTS, READONLY, DEBUGGING
  9 .debug_info   0000f122  00000000  00000000  0000adb0  2**0
                  CONTENTS, READONLY, DEBUGGING
 10 .debug_abbrev 0000341d  00000000  00000000  00019ed2  2**0
                  CONTENTS, READONLY, DEBUGGING
 11 .debug_line   0000a581  00000000  00000000  0001d2ef  2**0
                  CONTENTS, READONLY, DEBUGGING
 12 .debug_frame  00001314  00000000  00000000  00027870  2**2
                  CONTENTS, READONLY, DEBUGGING
 13 .debug_str    00001007  00000000  00000000  00028b84  2**0
                  CONTENTS, READONLY, DEBUGGING
 14 .debug_loc    000026d4  00000000  00000000  00029b8b  2**0
                  CONTENTS, READONLY, DEBUGGING
 15 .debug_alt_sim_info 00000020  00000000  00000000  0002c260  2**2
                  CONTENTS, READONLY, DEBUGGING
 16 .debug_ranges 000001d0  00000000  00000000  0002c280  2**3
                  CONTENTS, READONLY, DEBUGGING
 17 .thread_model 00000003  00000000  00000000  0002eea6  2**0
                  CONTENTS, READONLY
 18 .cpu          00000003  00000000  00000000  0002eea9  2**0
                  CONTENTS, READONLY
 19 .qsys         00000001  00000000  00000000  0002eeac  2**0
                  CONTENTS, READONLY
 20 .simulation_enabled 00000001  00000000  00000000  0002eead  2**0
                  CONTENTS, READONLY
 21 .sysid_hash   00000004  00000000  00000000  0002eeae  2**0
                  CONTENTS, READONLY
 22 .sysid_base   00000004  00000000  00000000  0002eeb2  2**0
                  CONTENTS, READONLY
 23 .sysid_time   00000004  00000000  00000000  0002eeb6  2**0
                  CONTENTS, READONLY
 24 .stderr_dev   00000009  00000000  00000000  0002eeba  2**0
                  CONTENTS, READONLY
 25 .stdin_dev    00000009  00000000  00000000  0002eec3  2**0
                  CONTENTS, READONLY
 26 .stdout_dev   00000009  00000000  00000000  0002eecc  2**0
                  CONTENTS, READONLY
 27 .sopc_system_name 0000000c  00000000  00000000  0002eed5  2**0
                  CONTENTS, READONLY
 28 .quartus_project_dir 0000001d  00000000  00000000  0002eee1  2**0
                  CONTENTS, READONLY
 29 .jdi          000048ae  00000000  00000000  0002eefe  2**0
                  CONTENTS, READONLY
 30 .sopcinfo     0007315a  00000000  00000000  000337ac  2**0
                  CONTENTS, READONLY
SYMBOL TABLE:
04010000 l    d  .entry	00000000 .entry
04010020 l    d  .exceptions	00000000 .exceptions
0401022c l    d  .text	00000000 .text
04018294 l    d  .rodata	00000000 .rodata
0401844c l    d  .rwdata	00000000 .rwdata
04018a94 l    d  .bss	00000000 .bss
00000000 l    d  .comment	00000000 .comment
00000000 l    d  .debug_aranges	00000000 .debug_aranges
00000000 l    d  .debug_pubnames	00000000 .debug_pubnames
00000000 l    d  .debug_info	00000000 .debug_info
00000000 l    d  .debug_abbrev	00000000 .debug_abbrev
00000000 l    d  .debug_line	00000000 .debug_line
00000000 l    d  .debug_frame	00000000 .debug_frame
00000000 l    d  .debug_str	00000000 .debug_str
00000000 l    d  .debug_loc	00000000 .debug_loc
00000000 l    d  .debug_alt_sim_info	00000000 .debug_alt_sim_info
00000000 l    d  .debug_ranges	00000000 .debug_ranges
04010264 l       .text	00000000 alt_after_alt_main
00000000 l    df *ABS*	00000000 alt_irq_handler.c
00000000 l    df *ABS*	00000000 alt_instruction_exception_entry.c
00000000 l    df *ABS*	00000000 drawing_routines.c
00000000 l    df *ABS*	00000000 lcd.c
00000000 l    df *ABS*	00000000 ff.c
04010884 l     F .text	0000007c mem_cpy
04010900 l     F .text	00000068 mem_set
04010968 l     F .text	000000a8 mem_cmp
04010a10 l     F .text	00000080 chk_chr
04010a90 l     F .text	00000098 move_window
04010e5c l     F .text	000001fc dir_sdi
04011058 l     F .text	000001b0 dir_next
04011208 l     F .text	00000104 dir_find
0401130c l     F .text	00000100 dir_read
04018294 l     O .rodata	00000080 excvt.1901
0401140c l     F .text	00000318 create_name
04011724 l     F .text	00000240 get_fileinfo
04011964 l     F .text	000001d4 follow_path
04011b38 l     F .text	000001d0 check_fs
04011d08 l     F .text	00000824 chk_mounted
04018a98 l     O .bss	00000004 FatFs
04018a9c l     O .bss	00000002 Fsid
0401252c l     F .text	000000a4 validate
00000000 l    df *ABS*	00000000 fatfs.c
00000000 l    df *ABS*	00000000 fatfs_diskio.c
04018738 l     O .rwdata	00000001 Stat
04018aa0 l     O .bss	00000001 CardType
04018aa2 l     O .bss	00000002 Timer1
04018aa4 l     O .bss	00000002 Timer2
04018aa6 l     O .bss	00000001 XMITDummy
04018aa8 l     O .bss	00000002 Control1
0401339c l     F .text	0000004c SetLowSpeed
040133e8 l     F .text	0000006c SetHighSpeed
04013454 l     F .text	00000044 InitDiskIOHardware
04013498 l     F .text	0000003c Set8BitTransfer
040134d4 l     F .text	00000038 Set16BitTransfer
0401350c l     F .text	00000058 ReceiveU8
04013564 l     F .text	000001c8 ReceiveDatablock
0401372c l     F .text	00000154 TransmitDatablock
040138a4 l     F .text	00000058 WaitReady
04013880 l     F .text	00000024 GetCDWP
040138fc l     F .text	00000044 ReleaseBus
04013940 l     F .text	00000280 SendCMD
04018aac l     O .bss	00000004 pvm.1863
00000000 l    df *ABS*	00000000 main.c
04018ab0 l     O .bss	00000004 Systick
04018ab4 l     O .bss	00000002 wTimer10ms.2821
040147b8 l     F .text	00000068 TimerFunction
04018ab6 l     O .bss	00000002 Timer
04014820 l     F .text	00000044 IoInit
04018ad8 l     O .bss	00000018 alarm
00000000 l    df *ABS*	00000000 lib2-divmod.c
04014ba8 l     F .text	0000007c udivmodsi4
00000000 l    df *ABS*	00000000 lib2-mul.c
00000000 l    df *ABS*	00000000 memset.c
00000000 l    df *ABS*	00000000 printf.c
00000000 l    df *ABS*	00000000 puts.c
00000000 l    df *ABS*	00000000 strlen.c
00000000 l    df *ABS*	00000000 vfprintf.c
04014ea8 l     F .text	00000080 print_repeat
00000000 l    df *ABS*	00000000 fvwrite_small_dev.c
00000000 l    df *ABS*	00000000 impure.c
0401844c l     O .rwdata	000000e0 impure_data
00000000 l    df *ABS*	00000000 writer.c
00000000 l    df *ABS*	00000000 int_errno.c
00000000 l    df *ABS*	00000000 alt_alarm_start.c
00000000 l    df *ABS*	00000000 alt_load.c
040158f0 l     F .text	0000006c alt_load_section
00000000 l    df *ABS*	00000000 alt_main.c
00000000 l    df *ABS*	00000000 alt_tick.c
00000000 l    df *ABS*	00000000 alt_write.c
04015c90 l     F .text	00000060 alt_get_errno
00000000 l    df *ABS*	00000000 alt_sys_init.c
0401852c l     O .rwdata	0000002c jtag_uart
04018558 l     O .rwdata	00000030 sgdma
04015d80 l     F .text	00000038 alt_dev_reg
00000000 l    df *ABS*	00000000 altera_avalon_jtag_uart_fd.c
00000000 l    df *ABS*	00000000 altera_avalon_jtag_uart_read.c
00000000 l    df *ABS*	00000000 altera_avalon_jtag_uart_write.c
00000000 l    df *ABS*	00000000 altera_avalon_sgdma.c
040166e0 l     F .text	00000060 alt_get_errno
04016c88 l     F .text	000000c0 alt_avalon_sgdma_irq
00000000 l    df *ABS*	00000000 altera_avalon_timer_sc.c
04016df4 l     F .text	00000070 alt_avalon_timer_sc_irq
00000000 l    df *ABS*	00000000 alt_close.c
04016ff4 l     F .text	00000060 alt_get_errno
00000000 l    df *ABS*	00000000 alt_dcache_flush_all.c
00000000 l    df *ABS*	00000000 alt_dev.c
04017070 l     F .text	0000002c alt_dev_null_write
00000000 l    df *ABS*	00000000 alt_dev_llist_insert.c
04017150 l     F .text	00000060 alt_get_errno
00000000 l    df *ABS*	00000000 alt_do_ctors.c
00000000 l    df *ABS*	00000000 alt_do_dtors.c
00000000 l    df *ABS*	00000000 alt_errno.c
00000000 l    df *ABS*	00000000 alt_find_dev.c
00000000 l    df *ABS*	00000000 alt_icache_flush_all.c
00000000 l    df *ABS*	00000000 alt_iic.c
00000000 l    df *ABS*	00000000 alt_iic_isr_register.c
00000000 l    df *ABS*	00000000 alt_io_redirect.c
04017608 l     F .text	000000d8 alt_open_fd
00000000 l    df *ABS*	00000000 alt_irq_vars.c
00000000 l    df *ABS*	00000000 alt_open.c
04017758 l     F .text	000000f8 alt_file_locked
040179dc l     F .text	00000060 alt_get_errno
00000000 l    df *ABS*	00000000 alt_release_fd.c
00000000 l    df *ABS*	00000000 alt_remap_uncached.c
00000000 l    df *ABS*	00000000 altera_nios2_qsys_irq.c
00000000 l    df *ABS*	00000000 alt_dcache_flush.c
00000000 l    df *ABS*	00000000 alt_find_file.c
00000000 l    df *ABS*	00000000 alt_get_fd.c
00000000 l    df *ABS*	00000000 alt_icache_flush.c
00000000 l    df *ABS*	00000000 atexit.c
00000000 l    df *ABS*	00000000 exit.c
00000000 l    df *ABS*	00000000 memcmp.c
00000000 l    df *ABS*	00000000 __atexit.c
00000000 l    df *ABS*	00000000 __call_atexit.c
04018070 l     F .text	00000004 register_fini
00000000 l    df *ABS*	00000000 alt_exit.c
04018230 l     F .text	00000040 alt_sim_halt
04018ad4 g     O .bss	00000004 alt_instruction_exception_handler
040132a8 g     F .text	000000d0 f_gets
0401595c g     F .text	0000006c alt_main
04014de4 g     F .text	00000090 _puts_r
04018d30 g     O .bss	00000224 Fatfs
0401917c g     O .bss	00000100 alt_irq
04010ba8 g     F .text	000002b4 get_fat
04018770 g       *ABS*	00000000 __flash_rwdata_start
04014d4c g     F .text	00000054 printf
0401614c g     F .text	00000124 alt_avalon_sgdma_do_sync_transfer
040168a0 g     F .text	000003e8 alt_avalon_sgdma_construct_descriptor_burst
04010268 g     F .text	00000068 setPix
00000000  w      *UND*	00000000 __errno
04010000 g     F .entry	0000001c __reset
0401053c g     F .text	00000120 my_dma_callback
040163b4 g     F .text	00000070 alt_avalon_sgdma_construct_stream_to_mem_desc_burst
04010020 g       *ABS*	00000000 __flash_exceptions_start
04018ab8 g     O .bss	00000004 errno
0401410c g     F .text	0000019c ffs_DiskIOWrite
04018ac0 g     O .bss	00000004 alt_argv
04020730 g       *ABS*	00000000 _gp
04018a94 g     O .bss	00000004 active_buffer
040185b0 g     O .rwdata	00000180 alt_fd_list
040142a8 g     F .text	000004e4 ffs_DiskIOIoctl
04017278 g     F .text	00000094 alt_find_dev
04010480 g     F .text	000000bc nonburst_memset
040176e0 g     F .text	00000078 alt_io_redirect
04018294 g       *ABS*	00000000 __DTOR_END__
04014e74 g     F .text	00000014 puts
04017db8 g     F .text	000000dc alt_exception_cause_generated_bad_addr
04016498 g     F .text	00000084 alt_avalon_sgdma_construct_mem_to_stream_desc_burst
04015e68 g     F .text	00000104 altera_avalon_jtag_uart_read
00000000  w      *UND*	00000000 malloc
04014da0 g     F .text	00000044 _printf_r
04014ce4 g     F .text	00000008 __udivsi3
04017d28 g     F .text	00000090 alt_icache_flush
040165c0 g     F .text	00000058 alt_avalon_sgdma_stop
04017b14 g     F .text	00000024 alt_dcache_flush
04018764 g     O .rwdata	00000004 alt_max_fd
040102d0 g     F .text	000001b0 line
04018740 g     O .rwdata	00000004 _global_impure_ptr
04019308 g       *ABS*	00000000 __bss_end
04017510 g     F .text	000000f8 alt_iic_isr_register
04016010 g     F .text	0000013c alt_avalon_sgdma_do_async_transfer
04018734 g     O .rwdata	00000004 frameBufferB
04015a60 g     F .text	0000010c alt_tick
040174c8 g     F .text	00000048 alt_ic_irq_enabled
040159c8 g     F .text	00000098 alt_alarm_stop
04018ad0 g     O .bss	00000004 alt_irq_active
040100fc g     F .exceptions	000000c8 alt_irq_handler
04018588 g     O .rwdata	00000028 alt_dev_null
04016618 g     F .text	00000070 alt_avalon_sgdma_check_descriptor_status
04017054 g     F .text	0000001c alt_dcache_flush_all
04018770 g       *ABS*	00000000 __ram_rwdata_end
04010000 g       *ABS*	00000000 __alt_mem_onchip_memory
0401875c g     O .rwdata	00000008 alt_dev_list
04015b6c g     F .text	00000124 write
040167c8 g     F .text	0000007c alt_avalon_sgdma_enable_desc_poll
0401844c g       *ABS*	00000000 __ram_rodata_end
04014cec g     F .text	00000008 __umodsi3
04016424 g     F .text	00000074 alt_avalon_sgdma_construct_mem_to_stream_desc
0401651c g     F .text	00000050 alt_avalon_sgdma_register_callback
04018af0 g     O .bss	00000100 dmaDescA
04019308 g       *ABS*	00000000 end
04018bf0 g     O .bss	00000020 dmaDescEND
040101c4 g     F .exceptions	00000068 alt_instruction_exception_entry
04018290 g       *ABS*	00000000 __CTOR_LIST__
04019858 g       *ABS*	00000000 __alt_stack_pointer
04016844 g     F .text	0000005c alt_avalon_sgdma_disable_desc_poll
04016e64 g     F .text	00000090 alt_avalon_timer_sc_init
04015f6c g     F .text	000000a4 altera_avalon_jtag_uart_write
04016270 g     F .text	00000070 alt_avalon_sgdma_construct_mem_to_mem_desc
04014f28 g     F .text	0000069c ___vfprintf_internal_r
04016360 g     F .text	00000054 alt_avalon_sgdma_construct_stream_to_mem_desc
04018074 g     F .text	000001bc __call_exitprocs
04018f54 g     O .bss	0000000a Buff
04012c78 g     F .text	00000064 f_close
0401022c g     F .text	0000003c _start
04018ac8 g     O .bss	00000004 _alt_tick_rate
04016688 g     F .text	00000058 alt_avalon_sgdma_open
04018acc g     O .bss	00000004 _alt_nticks
04015d24 g     F .text	0000005c alt_sys_init
04017f04 g     F .text	0000016c __register_exitproc
04012858 g     F .text	00000420 f_read
04017ab4 g     F .text	00000040 alt_remap_uncached
040131c0 g     F .text	000000e8 f_readdir
04014cf4 g     F .text	00000038 __mulsi3
0401844c g       *ABS*	00000000 __ram_rwdata_start
04013fcc g     F .text	00000140 ffs_DiskIORead
04018294 g       *ABS*	00000000 __ram_rodata_start
0401065c g     F .text	00000228 init_and_start_framebuffer
04015db8 g     F .text	00000058 altera_avalon_jtag_uart_read_fd
04017c58 g     F .text	000000d0 alt_get_fd
04013bec g     F .text	0000011c ffs_DiskIOTimerproc
04013d08 g     F .text	0000029c ffs_DiskIOInitialize
04017ec8 g     F .text	0000003c memcmp
04019308 g       *ABS*	00000000 __alt_stack_base
0401478c g     F .text	0000002c get_fattime
04017b38 g     F .text	00000120 alt_find_file
0401709c g     F .text	000000b4 alt_dev_llist_insert
04018730 g     O .rwdata	00000004 frameBufferA
0401656c g     F .text	00000054 alt_avalon_sgdma_start
040155e8 g     F .text	000000bc __sfvwrite_small_dev
04018a94 g       *ABS*	00000000 __bss_start
04014d2c g     F .text	00000020 memset
0401488c g     F .text	0000031c main
04018ac4 g     O .bss	00000004 alt_envp
04015e10 g     F .text	00000058 altera_avalon_jtag_uart_write_fd
0401874c g     O .rwdata	00000008 alt_sgdma_list
0401927c g     O .bss	0000008c _atexit0
04018768 g     O .rwdata	00000004 alt_errno
040125d0 g     F .text	000000a4 f_mount
04013048 g     F .text	00000178 f_opendir
04014c24 g     F .text	00000060 __divsi3
04018294 g       *ABS*	00000000 __CTOR_END__
04014864 g     F .text	00000028 die
04018294 g       *ABS*	00000000 __flash_rodata_start
04018294 g       *ABS*	00000000 __DTOR_LIST__
04015cf0 g     F .text	00000034 alt_irq_init
04017a3c g     F .text	00000078 alt_release_fd
04012cdc g     F .text	0000036c f_lseek
04017e94 g     F .text	00000014 atexit
040156a4 g     F .text	00000078 _write_r
0401873c g     O .rwdata	00000004 _impure_ptr
04018abc g     O .bss	00000004 alt_argc
04017214 g     F .text	00000064 _do_dtors
04018f60 g     O .bss	0000021c Fil
04010020 g       .exceptions	00000000 alt_irq_entry
04013fa4 g     F .text	00000028 ffs_DiskIOStatus
04018754 g     O .rwdata	00000008 alt_fs_list
04010020 g       *ABS*	00000000 __ram_exceptions_start
04010b28 g     F .text	00000080 clust2sect
0401733c g     F .text	00000050 alt_ic_isr_register
04018770 g       *ABS*	00000000 _edata
04019308 g       *ABS*	00000000 _end
0401022c g       *ABS*	00000000 __ram_exceptions_end
04017428 g     F .text	000000a0 alt_ic_irq_disable
04016740 g     F .text	00000088 alt_avalon_sgdma_construct_descriptor
04012674 g     F .text	000001e4 f_open
04017af4 g     F .text	00000020 altera_nios2_qsys_irq_init
04017ea8 g     F .text	00000020 exit
04018c10 g     O .bss	00000100 dmaDescB
04014c84 g     F .text	00000060 __modsi3
04019858 g       *ABS*	00000000 __alt_data_end
04010020 g     F .exceptions	00000000 alt_exception
02000000 g       *ABS*	00000000 __alt_mem_sdram
04018270 g     F .text	00000020 _exit
04013378 g     F .text	00000024 ffs_Init
0401571c g     F .text	00000154 alt_alarm_start
04014e88 g     F .text	00000020 strlen
04017850 g     F .text	0000018c open
0401730c g     F .text	00000030 alt_icache_flush_all
0401876c g     O .rwdata	00000004 alt_priority_mask
0401738c g     F .text	0000009c alt_ic_irq_enable
040155c4 g     F .text	00000024 __vfprintf_internal
04018d10 g     O .bss	00000020 dmaDescBEND
040162e0 g     F .text	00000080 alt_avalon_sgdma_construct_mem_to_mem_desc_burst
04013bc0 g     F .text	0000002c ffs_DiskIOInit
04018744 g     O .rwdata	00000008 alt_alarm_list
040171b0 g     F .text	00000064 _do_ctors
04016ef4 g     F .text	00000100 close
04015870 g     F .text	00000080 alt_load
04016d48 g     F .text	000000ac alt_avalon_sgdma_init
00000000  w      *UND*	00000000 free



Disassembly of section .entry:

04010000 <__reset>:
#if NIOS2_ICACHE_SIZE > 0 && defined(ALT_ALLOW_CODE_AT_RESET) && !defined(ALT_SIM_OPTIMIZE)
    /* Assume the instruction cache size is always a power of two. */
#if NIOS2_ICACHE_SIZE > 0x8000
    movhi r2, %hi(NIOS2_ICACHE_SIZE)
#else
    movui r2, NIOS2_ICACHE_SIZE
 4010000:	00820014 	movui	r2,2048
#endif

0:
    initi r2
 4010004:	1001483a 	initi	r2
    addi r2, r2, -NIOS2_ICACHE_LINE_SIZE
 4010008:	10bff804 	addi	r2,r2,-32
    bgt r2, zero, 0b
 401000c:	00bffd16 	blt	zero,r2,4010004 <__reset+0x4>
 * Jump to the _start entry point in the .text section if reset code
 * is allowed or if optimizing for RTL simulation.
 */
#if defined(ALT_ALLOW_CODE_AT_RESET) || defined(ALT_SIM_OPTIMIZE)
    /* Jump to the _start entry point in the .text section. */
    movhi r1, %hi(_start)
 4010010:	00410074 	movhi	at,1025
    ori r1, r1, %lo(_start)
 4010014:	08408b14 	ori	at,at,556
    jmp r1
 4010018:	0800683a 	jmp	at
 401001c:	00000000 	call	0 <__alt_mem_sdram-0x2000000>

Disassembly of section .exceptions:

04010020 <alt_exception>:
         * Process an exception.  For all exceptions we must preserve all
         * caller saved registers on the stack (See the Nios2 ABI
         * documentation for details).
         */

        addi  sp, sp, -76
 4010020:	deffed04 	addi	sp,sp,-76

#endif

#endif

        stw   ra,  0(sp)
 4010024:	dfc00015 	stw	ra,0(sp)
        /*
         * Leave a gap in the stack frame at 4(sp) for the muldiv handler to
         * store zero into.
         */

        stw   r1,   8(sp)
 4010028:	d8400215 	stw	at,8(sp)
        stw   r2,  12(sp)
 401002c:	d8800315 	stw	r2,12(sp)
        stw   r3,  16(sp)
 4010030:	d8c00415 	stw	r3,16(sp)
        stw   r4,  20(sp)
 4010034:	d9000515 	stw	r4,20(sp)
        stw   r5,  24(sp)
 4010038:	d9400615 	stw	r5,24(sp)
        stw   r6,  28(sp)
 401003c:	d9800715 	stw	r6,28(sp)
        stw   r7,  32(sp)
 4010040:	d9c00815 	stw	r7,32(sp)

        rdctl r5, estatus
 4010044:	000b307a 	rdctl	r5,estatus

        stw   r8,  36(sp)
 4010048:	da000915 	stw	r8,36(sp)
        stw   r9,  40(sp)
 401004c:	da400a15 	stw	r9,40(sp)
        stw   r10, 44(sp)
 4010050:	da800b15 	stw	r10,44(sp)
        stw   r11, 48(sp)
 4010054:	dac00c15 	stw	r11,48(sp)
        stw   r12, 52(sp)
 4010058:	db000d15 	stw	r12,52(sp)
        stw   r13, 56(sp)
 401005c:	db400e15 	stw	r13,56(sp)
        stw   r14, 60(sp)
 4010060:	db800f15 	stw	r14,60(sp)
        stw   r15, 64(sp)
 4010064:	dbc01015 	stw	r15,64(sp)
        /*
         * ea-4 contains the address of the instruction being executed
         * when the exception occured. For interrupt exceptions, we will
         * will be re-issue the isntruction. Store it in 72(sp)
         */
        stw   r5,  68(sp)  /* estatus */
 4010068:	d9401115 	stw	r5,68(sp)
        addi  r15, ea, -4  /* instruction that caused exception */
 401006c:	ebffff04 	addi	r15,ea,-4
        stw   r15,  72(sp)
 4010070:	dbc01215 	stw	r15,72(sp)
#else
        /*
         * Test to see if the exception was a software exception or caused 
         * by an external interrupt, and vector accordingly.
         */
        rdctl r4, ipending
 4010074:	0009313a 	rdctl	r4,ipending
        andi  r2, r5, 1
 4010078:	2880004c 	andi	r2,r5,1
        beq   r2, zero, .Lnot_irq
 401007c:	10000326 	beq	r2,zero,401008c <alt_exception+0x6c>
        beq   r4, zero, .Lnot_irq
 4010080:	20000226 	beq	r4,zero,401008c <alt_exception+0x6c>
        /*
         * Now that all necessary registers have been preserved, call 
         * alt_irq_handler() to process the interrupts.
         */

        call alt_irq_handler
 4010084:	40100fc0 	call	40100fc <alt_irq_handler>

        .section .exceptions.irqreturn, "xa"

        br    .Lexception_exit
 4010088:	00000706 	br	40100a8 <alt_exception+0x88>
         * upon completion, so we write ea (address of instruction *after*
         * the one where the exception occured) into 72(sp). The actual
         * instruction that caused the exception is written in r2, which these
         * handlers will utilize.
         */
        stw   ea,  72(sp)  /* Don't re-issue */
 401008c:	df401215 	stw	ea,72(sp)
        ldw   r2, -4(ea)   /* Instruction that caused exception */
 4010090:	e8bfff17 	ldw	r2,-4(ea)
         * debugger is present) or go into an infinite loop since the
         * handling behavior is undefined; in that case we will not return here.
         */

        /* Load exception-causing address as first argument (r4) */
        addi   r4, ea, -4
 4010094:	e93fff04 	addi	r4,ea,-4

        /* Call the instruction-exception entry */
        call   alt_instruction_exception_entry
 4010098:	40101c40 	call	40101c4 <alt_instruction_exception_entry>
         * instruction
         *
         * Return code was 0: Skip. The instruction after the exception is
         * already stored in 72(sp).
         */
        bne   r2, r0, .Lexception_exit
 401009c:	1000021e 	bne	r2,zero,40100a8 <alt_exception+0x88>

        /*
         * Otherwise, modify 72(sp) to re-issue the instruction that caused the
         * exception.
         */
        addi  r15, ea, -4  /* instruction that caused exception */
 40100a0:	ebffff04 	addi	r15,ea,-4
        stw   r15,  72(sp)
 40100a4:	dbc01215 	stw	r15,72(sp)
        /* 
         * Restore the saved registers, so that all general purpose registers 
         * have been restored to their state at the time the interrupt occured.
         */

        ldw   r5,  68(sp)
 40100a8:	d9401117 	ldw	r5,68(sp)
        ldw   ea,  72(sp)  /* This becomes the PC once eret is executed */
 40100ac:	df401217 	ldw	ea,72(sp)
        ldw   ra,   0(sp)
 40100b0:	dfc00017 	ldw	ra,0(sp)

        wrctl estatus, r5
 40100b4:	2801707a 	wrctl	estatus,r5

        ldw   r1,   8(sp)
 40100b8:	d8400217 	ldw	at,8(sp)
        ldw   r2,  12(sp)
 40100bc:	d8800317 	ldw	r2,12(sp)
        ldw   r3,  16(sp)
 40100c0:	d8c00417 	ldw	r3,16(sp)
        ldw   r4,  20(sp)
 40100c4:	d9000517 	ldw	r4,20(sp)
        ldw   r5,  24(sp)
 40100c8:	d9400617 	ldw	r5,24(sp)
        ldw   r6,  28(sp)
 40100cc:	d9800717 	ldw	r6,28(sp)
        ldw   r7,  32(sp)
 40100d0:	d9c00817 	ldw	r7,32(sp)
#ifdef ALT_STACK_CHECK
        ldw   et, %gprel(alt_exception_old_stack_limit)(gp)
#endif
#endif

        ldw   r8,  36(sp)
 40100d4:	da000917 	ldw	r8,36(sp)
        ldw   r9,  40(sp)
 40100d8:	da400a17 	ldw	r9,40(sp)
        ldw   r10, 44(sp)
 40100dc:	da800b17 	ldw	r10,44(sp)
        ldw   r11, 48(sp)
 40100e0:	dac00c17 	ldw	r11,48(sp)
        ldw   r12, 52(sp)
 40100e4:	db000d17 	ldw	r12,52(sp)
        ldw   r13, 56(sp)
 40100e8:	db400e17 	ldw	r13,56(sp)
        ldw   r14, 60(sp)
 40100ec:	db800f17 	ldw	r14,60(sp)
        ldw   r15, 64(sp)
 40100f0:	dbc01017 	ldw	r15,64(sp)
#endif

        ldw   sp,  76(sp)

#else
        addi  sp, sp, 76
 40100f4:	dec01304 	addi	sp,sp,76

        /*
         * Return to the interrupted instruction.
         */

        eret
 40100f8:	ef80083a 	eret

040100fc <alt_irq_handler>:
 * instruction is present if the macro ALT_CI_INTERRUPT_VECTOR defined.
 */

void alt_irq_handler (void) __attribute__ ((section (".exceptions")));
void alt_irq_handler (void)
{
 40100fc:	defff904 	addi	sp,sp,-28
 4010100:	dfc00615 	stw	ra,24(sp)
 4010104:	df000515 	stw	fp,20(sp)
 4010108:	df000504 	addi	fp,sp,20
#ifndef NIOS2_EIC_PRESENT
static ALT_INLINE alt_u32 ALT_ALWAYS_INLINE alt_irq_pending (void)
{
  alt_u32 active;

  NIOS2_READ_IPENDING (active);
 401010c:	0005313a 	rdctl	r2,ipending
 4010110:	e0bffc15 	stw	r2,-16(fp)

  return active;
 4010114:	e0bffc17 	ldw	r2,-16(fp)
   * Consider the case where the high priority interupt is asserted during
   * the interrupt entry sequence for a lower priority interrupt to see why
   * this is the case.
   */

  active = alt_irq_pending ();
 4010118:	e0bfff15 	stw	r2,-4(fp)

  do
  {
    i = 0;
 401011c:	e03ffd15 	stw	zero,-12(fp)
    mask = 1;
 4010120:	00800044 	movi	r2,1
 4010124:	e0bffe15 	stw	r2,-8(fp)
     * called to clear the interrupt condition.
     */

    do
    {
      if (active & mask)
 4010128:	e0ffff17 	ldw	r3,-4(fp)
 401012c:	e0bffe17 	ldw	r2,-8(fp)
 4010130:	1884703a 	and	r2,r3,r2
 4010134:	1005003a 	cmpeq	r2,r2,zero
 4010138:	1000161e 	bne	r2,zero,4010194 <alt_irq_handler+0x98>
      { 
#ifdef ALT_ENHANCED_INTERRUPT_API_PRESENT
        alt_irq[i].handler(alt_irq[i].context); 
 401013c:	e0bffd17 	ldw	r2,-12(fp)
 4010140:	00c100b4 	movhi	r3,1026
 4010144:	18e45f04 	addi	r3,r3,-28292
 4010148:	100490fa 	slli	r2,r2,3
 401014c:	10c5883a 	add	r2,r2,r3
 4010150:	11400017 	ldw	r5,0(r2)
 4010154:	e0bffd17 	ldw	r2,-12(fp)
 4010158:	00c100b4 	movhi	r3,1026
 401015c:	18e45f04 	addi	r3,r3,-28292
 4010160:	100490fa 	slli	r2,r2,3
 4010164:	10c5883a 	add	r2,r2,r3
 4010168:	10800104 	addi	r2,r2,4
 401016c:	11000017 	ldw	r4,0(r2)
 4010170:	283ee83a 	callr	r5
#ifndef NIOS2_EIC_PRESENT
static ALT_INLINE alt_u32 ALT_ALWAYS_INLINE alt_irq_pending (void)
{
  alt_u32 active;

  NIOS2_READ_IPENDING (active);
 4010174:	0005313a 	rdctl	r2,ipending
 4010178:	e0bffb15 	stw	r2,-20(fp)

  return active;
 401017c:	e0bffb17 	ldw	r2,-20(fp)
      mask <<= 1;
      i++;

    } while (1);

    active = alt_irq_pending ();
 4010180:	e0bfff15 	stw	r2,-4(fp)
    
  } while (active);
 4010184:	e0bfff17 	ldw	r2,-4(fp)
 4010188:	1004c03a 	cmpne	r2,r2,zero
 401018c:	103fe31e 	bne	r2,zero,401011c <alt_irq_handler+0x20>
 4010190:	00000706 	br	40101b0 <alt_irq_handler+0xb4>
#else
        alt_irq[i].handler(alt_irq[i].context, i); 
#endif
        break;
      }
      mask <<= 1;
 4010194:	e0bffe17 	ldw	r2,-8(fp)
 4010198:	1085883a 	add	r2,r2,r2
 401019c:	e0bffe15 	stw	r2,-8(fp)
      i++;
 40101a0:	e0bffd17 	ldw	r2,-12(fp)
 40101a4:	10800044 	addi	r2,r2,1
 40101a8:	e0bffd15 	stw	r2,-12(fp)

    } while (1);
 40101ac:	003fde06 	br	4010128 <alt_irq_handler+0x2c>
  /*
   * Notify the operating system that interrupt processing is complete.
   */ 

  ALT_OS_INT_EXIT();
}
 40101b0:	e037883a 	mov	sp,fp
 40101b4:	dfc00117 	ldw	ra,4(sp)
 40101b8:	df000017 	ldw	fp,0(sp)
 40101bc:	dec00204 	addi	sp,sp,8
 40101c0:	f800283a 	ret

040101c4 <alt_instruction_exception_entry>:
 * using alt_instruction_exception_register(). This routine will call
 * that handler if it has been registered. Absent a handler, it will
 * break break or hang as discussed below.
 */
int alt_instruction_exception_entry (alt_u32 exception_pc)
{
 40101c4:	defffa04 	addi	sp,sp,-24
 40101c8:	dfc00515 	stw	ra,20(sp)
 40101cc:	df000415 	stw	fp,16(sp)
 40101d0:	df000404 	addi	fp,sp,16
 40101d4:	e13ffe15 	stw	r4,-8(fp)
  cause = ( (cause & NIOS2_EXCEPTION_REG_CAUSE_MASK) >>
              NIOS2_EXCEPTION_REG_CAUSE_OFST );

  NIOS2_READ_BADADDR(badaddr);
#else
  cause = NIOS2_EXCEPTION_CAUSE_NOT_PRESENT;
 40101d8:	00bfffc4 	movi	r2,-1
 40101dc:	e0bffd15 	stw	r2,-12(fp)
  badaddr = 0;
 40101e0:	e03ffc15 	stw	zero,-16(fp)
#endif /* NIOS2_HAS_EXTRA_EXCEPTION_INFO */

  if(alt_instruction_exception_handler) {
 40101e4:	d0a0e917 	ldw	r2,-31836(gp)
 40101e8:	1005003a 	cmpeq	r2,r2,zero
 40101ec:	1000071e 	bne	r2,zero,401020c <alt_instruction_exception_entry+0x48>
     * Call handler. Its return value indicates whether the exception-causing
     * instruction should be re-issued. The code that called us,
     * alt_eceptions_entry.S, will look at this value and adjust the ea
     * register as necessary
     */
    return alt_instruction_exception_handler(cause, exception_pc, badaddr);
 40101f0:	d0a0e917 	ldw	r2,-31836(gp)
 40101f4:	e13ffd17 	ldw	r4,-12(fp)
 40101f8:	e17ffe17 	ldw	r5,-8(fp)
 40101fc:	e1bffc17 	ldw	r6,-16(fp)
 4010200:	103ee83a 	callr	r2
 4010204:	e0bfff15 	stw	r2,-4(fp)
 4010208:	00000206 	br	4010214 <alt_instruction_exception_entry+0x50>
   *    (a peripheral which negates its interrupt output before its
   *    interrupt handler has been executed will cause spurious interrupts)
   */
  else {
#ifdef NIOS2_HAS_DEBUG_STUB
    NIOS2_BREAK();
 401020c:	003da03a 	break	0
      ;
#endif /* NIOS2_HAS_DEBUG_STUB */
  }

  /* // We should not get here. Remove compiler warning. */
  return NIOS2_EXCEPTION_RETURN_REISSUE_INST;
 4010210:	e03fff15 	stw	zero,-4(fp)
 4010214:	e0bfff17 	ldw	r2,-4(fp)
}
 4010218:	e037883a 	mov	sp,fp
 401021c:	dfc00117 	ldw	ra,4(sp)
 4010220:	df000017 	ldw	fp,0(sp)
 4010224:	dec00204 	addi	sp,sp,8
 4010228:	f800283a 	ret

Disassembly of section .text:

0401022c <_start>:
#if (NIOS2_NUM_OF_SHADOW_REG_SETS == 0)    
    /*
     * Now that the caches are initialized, set up the stack pointer.
     * The value provided by the linker is assumed to be correctly aligned.
     */
    movhi sp, %hi(__alt_stack_pointer)
 401022c:	06c10074 	movhi	sp,1025
    ori sp, sp, %lo(__alt_stack_pointer)
 4010230:	dee61614 	ori	sp,sp,39000

    /* Set up the global pointer. */
    movhi gp, %hi(_gp)
 4010234:	068100b4 	movhi	gp,1026
    ori gp, gp, %lo(_gp)
 4010238:	d681cc14 	ori	gp,gp,1840
 */
#ifndef ALT_SIM_OPTIMIZE
    /* Log that the BSS is about to be cleared. */
    ALT_LOG_PUTS(alt_log_msg_bss)

    movhi r2, %hi(__bss_start)
 401023c:	00810074 	movhi	r2,1025
    ori r2, r2, %lo(__bss_start)
 4010240:	10a2a514 	ori	r2,r2,35476

    movhi r3, %hi(__bss_end)
 4010244:	00c10074 	movhi	r3,1025
    ori r3, r3, %lo(__bss_end)
 4010248:	18e4c214 	ori	r3,r3,37640

    beq r2, r3, 1f
 401024c:	10c00326 	beq	r2,r3,401025c <_start+0x30>

0:
    stw zero, (r2)
 4010250:	10000015 	stw	zero,0(r2)
    addi r2, r2, 4
 4010254:	10800104 	addi	r2,r2,4
    bltu r2, r3, 0b
 4010258:	10fffd36 	bltu	r2,r3,4010250 <_start+0x24>
     * section aren't defined until alt_load() has been called).
     */
    mov   et, zero
#endif

    call alt_load
 401025c:	40158700 	call	4015870 <alt_load>

    /* Log that alt_main is about to be called. */
    ALT_LOG_PUTS(alt_log_msg_alt_main)

    /* Call the C entry point. It should never return. */
    call alt_main
 4010260:	401595c0 	call	401595c <alt_main>

04010264 <alt_after_alt_main>:

    /* Wait in infinite loop in case alt_main does return. */
alt_after_alt_main:
    br alt_after_alt_main
 4010264:	003fff06 	br	4010264 <alt_after_alt_main>

04010268 <setPix>:

#include "drawing_routines.h"

// draw a pixel
inline void setPix(const int x, const int y, const Color col, alt_u32* buffer)
{
 4010268:	defffa04 	addi	sp,sp,-24
 401026c:	dfc00515 	stw	ra,20(sp)
 4010270:	df000415 	stw	fp,16(sp)
 4010274:	df000404 	addi	fp,sp,16
 4010278:	e13ffc15 	stw	r4,-16(fp)
 401027c:	e17ffd15 	stw	r5,-12(fp)
 4010280:	e1bffe15 	stw	r6,-8(fp)
 4010284:	e1ffff15 	stw	r7,-4(fp)
    buffer[x + y * 480] = col.color32;
 4010288:	e13ffd17 	ldw	r4,-12(fp)
 401028c:	01407804 	movi	r5,480
 4010290:	4014cf40 	call	4014cf4 <__mulsi3>
 4010294:	1007883a 	mov	r3,r2
 4010298:	e0bffc17 	ldw	r2,-16(fp)
 401029c:	1885883a 	add	r2,r3,r2
 40102a0:	1085883a 	add	r2,r2,r2
 40102a4:	1085883a 	add	r2,r2,r2
 40102a8:	1007883a 	mov	r3,r2
 40102ac:	e0bfff17 	ldw	r2,-4(fp)
 40102b0:	1887883a 	add	r3,r3,r2
 40102b4:	e0bffe17 	ldw	r2,-8(fp)
 40102b8:	18800015 	stw	r2,0(r3)
}
 40102bc:	e037883a 	mov	sp,fp
 40102c0:	dfc00117 	ldw	ra,4(sp)
 40102c4:	df000017 	ldw	fp,0(sp)
 40102c8:	dec00204 	addi	sp,sp,8
 40102cc:	f800283a 	ret

040102d0 <line>:

// bresenham line drawing
void line(alt_u32* buffer, int x0, int y0, int x1, int y1, Color color) {
 40102d0:	defff104 	addi	sp,sp,-60
 40102d4:	dfc00e15 	stw	ra,56(sp)
 40102d8:	df000d15 	stw	fp,52(sp)
 40102dc:	df000d04 	addi	fp,sp,52
 40102e0:	e13ff915 	stw	r4,-28(fp)
 40102e4:	e17ffa15 	stw	r5,-24(fp)
 40102e8:	e1bffb15 	stw	r6,-20(fp)
 40102ec:	e1fffc15 	stw	r7,-16(fp)

    int dx = abs(x1-x0), sx = x0<x1 ? 1 : -1;
 40102f0:	e0fffc17 	ldw	r3,-16(fp)
 40102f4:	e0bffa17 	ldw	r2,-24(fp)
 40102f8:	1885c83a 	sub	r2,r3,r2
 40102fc:	e0bff815 	stw	r2,-32(fp)
 4010300:	e0bff817 	ldw	r2,-32(fp)
 4010304:	1004403a 	cmpge	r2,r2,zero
 4010308:	1000031e 	bne	r2,zero,4010318 <line+0x48>
 401030c:	e0bff817 	ldw	r2,-32(fp)
 4010310:	0085c83a 	sub	r2,zero,r2
 4010314:	e0bff815 	stw	r2,-32(fp)
 4010318:	e0fffa17 	ldw	r3,-24(fp)
 401031c:	e0bffc17 	ldw	r2,-16(fp)
 4010320:	1880030e 	bge	r3,r2,4010330 <line+0x60>
 4010324:	00800044 	movi	r2,1
 4010328:	e0bfff15 	stw	r2,-4(fp)
 401032c:	00000206 	br	4010338 <line+0x68>
 4010330:	00bfffc4 	movi	r2,-1
 4010334:	e0bfff15 	stw	r2,-4(fp)
 4010338:	e0bfff17 	ldw	r2,-4(fp)
 401033c:	e0bff715 	stw	r2,-36(fp)
    int dy = abs(y1-y0), sy = y0<y1 ? 1 : -1;
 4010340:	e0c00217 	ldw	r3,8(fp)
 4010344:	e0bffb17 	ldw	r2,-20(fp)
 4010348:	1885c83a 	sub	r2,r3,r2
 401034c:	e0bff615 	stw	r2,-40(fp)
 4010350:	e0bff617 	ldw	r2,-40(fp)
 4010354:	1004403a 	cmpge	r2,r2,zero
 4010358:	1000031e 	bne	r2,zero,4010368 <line+0x98>
 401035c:	e0bff617 	ldw	r2,-40(fp)
 4010360:	0085c83a 	sub	r2,zero,r2
 4010364:	e0bff615 	stw	r2,-40(fp)
 4010368:	e0fffb17 	ldw	r3,-20(fp)
 401036c:	e0800217 	ldw	r2,8(fp)
 4010370:	1880030e 	bge	r3,r2,4010380 <line+0xb0>
 4010374:	00800044 	movi	r2,1
 4010378:	e0bffe15 	stw	r2,-8(fp)
 401037c:	00000206 	br	4010388 <line+0xb8>
 4010380:	00bfffc4 	movi	r2,-1
 4010384:	e0bffe15 	stw	r2,-8(fp)
 4010388:	e0bffe17 	ldw	r2,-8(fp)
 401038c:	e0bff515 	stw	r2,-44(fp)
    int err = (dx>dy ? dx : -dy)/2, e2;
 4010390:	e0fff817 	ldw	r3,-32(fp)
 4010394:	e0bff617 	ldw	r2,-40(fp)
 4010398:	10c00716 	blt	r2,r3,40103b8 <line+0xe8>
 401039c:	e0bff617 	ldw	r2,-40(fp)
 40103a0:	0087c83a 	sub	r3,zero,r2
 40103a4:	1804d7fa 	srli	r2,r3,31
 40103a8:	10c5883a 	add	r2,r2,r3
 40103ac:	1005d07a 	srai	r2,r2,1
 40103b0:	e0bffd15 	stw	r2,-12(fp)
 40103b4:	00000506 	br	40103cc <line+0xfc>
 40103b8:	e0fff817 	ldw	r3,-32(fp)
 40103bc:	1804d7fa 	srli	r2,r3,31
 40103c0:	10c5883a 	add	r2,r2,r3
 40103c4:	1005d07a 	srai	r2,r2,1
 40103c8:	e0bffd15 	stw	r2,-12(fp)
 40103cc:	e0bffd17 	ldw	r2,-12(fp)
 40103d0:	e0bff415 	stw	r2,-48(fp)
 40103d4:	00000006 	br	40103d8 <line+0x108>

    for(;;){
        setPix(x0, y0, color, buffer);
 40103d8:	e13ffa17 	ldw	r4,-24(fp)
 40103dc:	e17ffb17 	ldw	r5,-20(fp)
 40103e0:	e1800317 	ldw	r6,12(fp)
 40103e4:	e1fff917 	ldw	r7,-28(fp)
 40103e8:	40102680 	call	4010268 <setPix>
	if (x0==x1 && y0==y1) break;
 40103ec:	e0fffa17 	ldw	r3,-24(fp)
 40103f0:	e0bffc17 	ldw	r2,-16(fp)
 40103f4:	1880031e 	bne	r3,r2,4010404 <line+0x134>
 40103f8:	e0fffb17 	ldw	r3,-20(fp)
 40103fc:	e0800217 	ldw	r2,8(fp)
 4010400:	18801a26 	beq	r3,r2,401046c <line+0x19c>
	e2 = err;
 4010404:	e0bff417 	ldw	r2,-48(fp)
 4010408:	e0bff315 	stw	r2,-52(fp)
	if (e2 >-dx) { err -= dy; x0 += sx; }
 401040c:	e0bff817 	ldw	r2,-32(fp)
 4010410:	0087c83a 	sub	r3,zero,r2
 4010414:	e0bff317 	ldw	r2,-52(fp)
 4010418:	1880080e 	bge	r3,r2,401043c <line+0x16c>
 401041c:	e0fff417 	ldw	r3,-48(fp)
 4010420:	e0bff617 	ldw	r2,-40(fp)
 4010424:	1885c83a 	sub	r2,r3,r2
 4010428:	e0bff415 	stw	r2,-48(fp)
 401042c:	e0fffa17 	ldw	r3,-24(fp)
 4010430:	e0bff717 	ldw	r2,-36(fp)
 4010434:	1885883a 	add	r2,r3,r2
 4010438:	e0bffa15 	stw	r2,-24(fp)
	if (e2 < dy) { err += dx; y0 += sy; }
 401043c:	e0fff317 	ldw	r3,-52(fp)
 4010440:	e0bff617 	ldw	r2,-40(fp)
 4010444:	18bfe40e 	bge	r3,r2,40103d8 <line+0x108>
 4010448:	e0fff417 	ldw	r3,-48(fp)
 401044c:	e0bff817 	ldw	r2,-32(fp)
 4010450:	1885883a 	add	r2,r3,r2
 4010454:	e0bff415 	stw	r2,-48(fp)
 4010458:	e0fffb17 	ldw	r3,-20(fp)
 401045c:	e0bff517 	ldw	r2,-44(fp)
 4010460:	1885883a 	add	r2,r3,r2
 4010464:	e0bffb15 	stw	r2,-20(fp)
    }
 4010468:	003fdb06 	br	40103d8 <line+0x108>
}
 401046c:	e037883a 	mov	sp,fp
 4010470:	dfc00117 	ldw	ra,4(sp)
 4010474:	df000017 	ldw	fp,0(sp)
 4010478:	dec00204 	addi	sp,sp,8
 401047c:	f800283a 	ret

04010480 <nonburst_memset>:

// useful to fill parts of the screen without blocking the SDRAM for too long
// use this instead of memset when doing frame buffer fills
void nonburst_memset(alt_u32* trg, alt_u32 val, alt_u32 size)
{
 4010480:	defff704 	addi	sp,sp,-36
 4010484:	dfc00815 	stw	ra,32(sp)
 4010488:	df000715 	stw	fp,28(sp)
 401048c:	df000704 	addi	fp,sp,28
 4010490:	e13ffb15 	stw	r4,-20(fp)
 4010494:	e17ffc15 	stw	r5,-16(fp)
 4010498:	e1bffd15 	stw	r6,-12(fp)
const int chunkSize = 8;// <-size of burst, lower this if the display gets corrupted.
 401049c:	00800204 	movi	r2,8
 40104a0:	e0bffa15 	stw	r2,-24(fp)
alt_u32 s;
//int i;
    while(size) {
 40104a4:	00001d06 	br	401051c <nonburst_memset+0x9c>
	s = (size>chunkSize)?chunkSize:size;
 40104a8:	e0bffa17 	ldw	r2,-24(fp)
 40104ac:	e0bffe15 	stw	r2,-8(fp)
 40104b0:	e0fffd17 	ldw	r3,-12(fp)
 40104b4:	e0ffff15 	stw	r3,-4(fp)
 40104b8:	e0bffe17 	ldw	r2,-8(fp)
 40104bc:	e0ffff17 	ldw	r3,-4(fp)
 40104c0:	10c0022e 	bgeu	r2,r3,40104cc <nonburst_memset+0x4c>
 40104c4:	e0bffe17 	ldw	r2,-8(fp)
 40104c8:	e0bfff15 	stw	r2,-4(fp)
 40104cc:	e0ffff17 	ldw	r3,-4(fp)
 40104d0:	e0fff915 	stw	r3,-28(fp)
	memset(trg, val, s*4);
 40104d4:	e17ffc17 	ldw	r5,-16(fp)
 40104d8:	e0bff917 	ldw	r2,-28(fp)
 40104dc:	1085883a 	add	r2,r2,r2
 40104e0:	1085883a 	add	r2,r2,r2
 40104e4:	100d883a 	mov	r6,r2
 40104e8:	e13ffb17 	ldw	r4,-20(fp)
 40104ec:	4014d2c0 	call	4014d2c <memset>
        trg+=s;
 40104f0:	e0bff917 	ldw	r2,-28(fp)
 40104f4:	1085883a 	add	r2,r2,r2
 40104f8:	1085883a 	add	r2,r2,r2
 40104fc:	1007883a 	mov	r3,r2
 4010500:	e0bffb17 	ldw	r2,-20(fp)
 4010504:	10c5883a 	add	r2,r2,r3
 4010508:	e0bffb15 	stw	r2,-20(fp)
        //for(i=0;i<30;i++) {}
	size-=s;
 401050c:	e0fffd17 	ldw	r3,-12(fp)
 4010510:	e0bff917 	ldw	r2,-28(fp)
 4010514:	1885c83a 	sub	r2,r3,r2
 4010518:	e0bffd15 	stw	r2,-12(fp)
void nonburst_memset(alt_u32* trg, alt_u32 val, alt_u32 size)
{
const int chunkSize = 8;// <-size of burst, lower this if the display gets corrupted.
alt_u32 s;
//int i;
    while(size) {
 401051c:	e0bffd17 	ldw	r2,-12(fp)
 4010520:	1004c03a 	cmpne	r2,r2,zero
 4010524:	103fe01e 	bne	r2,zero,40104a8 <nonburst_memset+0x28>
	memset(trg, val, s*4);
        trg+=s;
        //for(i=0;i<30;i++) {}
	size-=s;
    }
}
 4010528:	e037883a 	mov	sp,fp
 401052c:	dfc00117 	ldw	ra,4(sp)
 4010530:	df000017 	ldw	fp,0(sp)
 4010534:	dec00204 	addi	sp,sp,8
 4010538:	f800283a 	ret

0401053c <my_dma_callback>:


// The InterruptService Routine (actually a callback function called by the ISR)
//
void my_dma_callback(void *data)
{
 401053c:	defffc04 	addi	sp,sp,-16
 4010540:	dfc00315 	stw	ra,12(sp)
 4010544:	df000215 	stw	fp,8(sp)
 4010548:	df000204 	addi	fp,sp,8
 401054c:	e13fff15 	stw	r4,-4(fp)
    // reset the OWNED_BY_HW bit in the descriptors to reuse the chain
    int i;

    if (active_buffer == 0) {
 4010550:	d0a0d917 	ldw	r2,-31900(gp)
 4010554:	1004c03a 	cmpne	r2,r2,zero
 4010558:	10001e1e 	bne	r2,zero,40105d4 <my_dma_callback+0x98>
    	for(i = 0; i < 8;++i) {
 401055c:	e03ffe15 	stw	zero,-8(fp)
 4010560:	00001406 	br	40105b4 <my_dma_callback+0x78>
    		dmaDescA[i].control |= 1<<ALTERA_AVALON_SGDMA_DESCRIPTOR_CONTROL_OWNED_BY_HW_OFST;
 4010564:	e17ffe17 	ldw	r5,-8(fp)
 4010568:	e0bffe17 	ldw	r2,-8(fp)
 401056c:	00c100b4 	movhi	r3,1026
 4010570:	18e2bc04 	addi	r3,r3,-29968
 4010574:	1004917a 	slli	r2,r2,5
 4010578:	10c5883a 	add	r2,r2,r3
 401057c:	108007c4 	addi	r2,r2,31
 4010580:	10c00003 	ldbu	r3,0(r2)
 4010584:	00bfe004 	movi	r2,-128
 4010588:	1884b03a 	or	r2,r3,r2
 401058c:	1009883a 	mov	r4,r2
 4010590:	00c100b4 	movhi	r3,1026
 4010594:	18e2bc04 	addi	r3,r3,-29968
 4010598:	2804917a 	slli	r2,r5,5
 401059c:	10c5883a 	add	r2,r2,r3
 40105a0:	108007c4 	addi	r2,r2,31
 40105a4:	11000005 	stb	r4,0(r2)
{
    // reset the OWNED_BY_HW bit in the descriptors to reuse the chain
    int i;

    if (active_buffer == 0) {
    	for(i = 0; i < 8;++i) {
 40105a8:	e0bffe17 	ldw	r2,-8(fp)
 40105ac:	10800044 	addi	r2,r2,1
 40105b0:	e0bffe15 	stw	r2,-8(fp)
 40105b4:	e0bffe17 	ldw	r2,-8(fp)
 40105b8:	10800210 	cmplti	r2,r2,8
 40105bc:	103fe91e 	bne	r2,zero,4010564 <my_dma_callback+0x28>
    		dmaDescA[i].control |= 1<<ALTERA_AVALON_SGDMA_DESCRIPTOR_CONTROL_OWNED_BY_HW_OFST;
    	}
        // trigger another transfer all over again
        alt_avalon_sgdma_do_async_transfer((alt_sgdma_dev*)data, dmaDescA);
 40105c0:	e13fff17 	ldw	r4,-4(fp)
 40105c4:	014100b4 	movhi	r5,1026
 40105c8:	2962bc04 	addi	r5,r5,-29968
 40105cc:	40160100 	call	4016010 <alt_avalon_sgdma_do_async_transfer>
 40105d0:	00001d06 	br	4010648 <my_dma_callback+0x10c>
    } else {
    	for(i = 0; i < 8;++i) {
 40105d4:	e03ffe15 	stw	zero,-8(fp)
 40105d8:	00001406 	br	401062c <my_dma_callback+0xf0>
    	    dmaDescB[i].control |= 1<<ALTERA_AVALON_SGDMA_DESCRIPTOR_CONTROL_OWNED_BY_HW_OFST;
 40105dc:	e17ffe17 	ldw	r5,-8(fp)
 40105e0:	e0bffe17 	ldw	r2,-8(fp)
 40105e4:	00c100b4 	movhi	r3,1026
 40105e8:	18e30404 	addi	r3,r3,-29680
 40105ec:	1004917a 	slli	r2,r2,5
 40105f0:	10c5883a 	add	r2,r2,r3
 40105f4:	108007c4 	addi	r2,r2,31
 40105f8:	10c00003 	ldbu	r3,0(r2)
 40105fc:	00bfe004 	movi	r2,-128
 4010600:	1884b03a 	or	r2,r3,r2
 4010604:	1009883a 	mov	r4,r2
 4010608:	00c100b4 	movhi	r3,1026
 401060c:	18e30404 	addi	r3,r3,-29680
 4010610:	2804917a 	slli	r2,r5,5
 4010614:	10c5883a 	add	r2,r2,r3
 4010618:	108007c4 	addi	r2,r2,31
 401061c:	11000005 	stb	r4,0(r2)
    		dmaDescA[i].control |= 1<<ALTERA_AVALON_SGDMA_DESCRIPTOR_CONTROL_OWNED_BY_HW_OFST;
    	}
        // trigger another transfer all over again
        alt_avalon_sgdma_do_async_transfer((alt_sgdma_dev*)data, dmaDescA);
    } else {
    	for(i = 0; i < 8;++i) {
 4010620:	e0bffe17 	ldw	r2,-8(fp)
 4010624:	10800044 	addi	r2,r2,1
 4010628:	e0bffe15 	stw	r2,-8(fp)
 401062c:	e0bffe17 	ldw	r2,-8(fp)
 4010630:	10800210 	cmplti	r2,r2,8
 4010634:	103fe91e 	bne	r2,zero,40105dc <my_dma_callback+0xa0>
    	    dmaDescB[i].control |= 1<<ALTERA_AVALON_SGDMA_DESCRIPTOR_CONTROL_OWNED_BY_HW_OFST;
    	}
        // trigger another transfer all over again
         alt_avalon_sgdma_do_async_transfer((alt_sgdma_dev*)data, dmaDescB);
 4010638:	e13fff17 	ldw	r4,-4(fp)
 401063c:	014100b4 	movhi	r5,1026
 4010640:	29630404 	addi	r5,r5,-29680
 4010644:	40160100 	call	4016010 <alt_avalon_sgdma_do_async_transfer>
    }
}
 4010648:	e037883a 	mov	sp,fp
 401064c:	dfc00117 	ldw	ra,4(sp)
 4010650:	df000017 	ldw	fp,0(sp)
 4010654:	dec00204 	addi	sp,sp,8
 4010658:	f800283a 	ret

0401065c <init_and_start_framebuffer>:

// this subroutine initializes a chain of descriptors, registers the
// interrupt service routine and starts the first asynchronous transfer
//
void init_and_start_framebuffer(alt_sgdma_dev *dma)
{
 401065c:	defff004 	addi	sp,sp,-64
 4010660:	dfc00f15 	stw	ra,60(sp)
 4010664:	df000e15 	stw	fp,56(sp)
 4010668:	df000e04 	addi	fp,sp,56
 401066c:	e13ff915 	stw	r4,-28(fp)
    // 480*272 lines * 4 bytes = 522240 bytes
    //   65532 (0xfffc) bytes * 7 = 458724
    //  +63516 (0xf81c) bytes

    // frame buffer A
    alt_u8* buff = (alt_u8*)frameBufferA;
 4010670:	d0a00017 	ldw	r2,-32768(gp)
 4010674:	e0bff815 	stw	r2,-32(fp)
    int i;
    for(i = 0; i < 8; ++i) {
 4010678:	e03ff715 	stw	zero,-36(fp)
 401067c:	00003406 	br	4010750 <init_and_start_framebuffer+0xf4>
        alt_u16 size = (i<7)?0xfffc:0xf81c;
 4010680:	e0bff717 	ldw	r2,-36(fp)
 4010684:	108001c8 	cmpgei	r2,r2,7
 4010688:	1000031e 	bne	r2,zero,4010698 <init_and_start_framebuffer+0x3c>
 401068c:	00bfff04 	movi	r2,-4
 4010690:	e0bfff0d 	sth	r2,-4(fp)
 4010694:	00000206 	br	40106a0 <init_and_start_framebuffer+0x44>
 4010698:	00be0704 	movi	r2,-2020
 401069c:	e0bfff0d 	sth	r2,-4(fp)
 40106a0:	e0bfff0b 	ldhu	r2,-4(fp)
 40106a4:	e0bff68d 	sth	r2,-38(fp)
	alt_avalon_sgdma_construct_mem_to_stream_desc(
 40106a8:	e0bff717 	ldw	r2,-36(fp)
 40106ac:	1004917a 	slli	r2,r2,5
 40106b0:	1007883a 	mov	r3,r2
 40106b4:	008100b4 	movhi	r2,1026
 40106b8:	10a2bc04 	addi	r2,r2,-29968
 40106bc:	1887883a 	add	r3,r3,r2
 40106c0:	e0fffe15 	stw	r3,-8(fp)
 40106c4:	e0bff717 	ldw	r2,-36(fp)
 40106c8:	108001c8 	cmpgei	r2,r2,7
 40106cc:	1000081e 	bne	r2,zero,40106f0 <init_and_start_framebuffer+0x94>
 40106d0:	e0bff717 	ldw	r2,-36(fp)
 40106d4:	1004917a 	slli	r2,r2,5
 40106d8:	1007883a 	mov	r3,r2
 40106dc:	008100b4 	movhi	r2,1026
 40106e0:	10a2c404 	addi	r2,r2,-29936
 40106e4:	1887883a 	add	r3,r3,r2
 40106e8:	e0fffd15 	stw	r3,-12(fp)
 40106ec:	00000306 	br	40106fc <init_and_start_framebuffer+0xa0>
 40106f0:	008100b4 	movhi	r2,1026
 40106f4:	10a2fc04 	addi	r2,r2,-29712
 40106f8:	e0bffd15 	stw	r2,-12(fp)
 40106fc:	e1bff817 	ldw	r6,-32(fp)
 4010700:	e1fff68b 	ldhu	r7,-38(fp)
 4010704:	e0bff717 	ldw	r2,-36(fp)
 4010708:	1007003a 	cmpeq	r3,r2,zero
 401070c:	e0bff717 	ldw	r2,-36(fp)
 4010710:	108001e0 	cmpeqi	r2,r2,7
 4010714:	d8000015 	stw	zero,0(sp)
 4010718:	d8c00115 	stw	r3,4(sp)
 401071c:	d8800215 	stw	r2,8(sp)
 4010720:	d8000315 	stw	zero,12(sp)
 4010724:	e13ffe17 	ldw	r4,-8(fp)
 4010728:	e17ffd17 	ldw	r5,-12(fp)
 401072c:	40164240 	call	4016424 <alt_avalon_sgdma_construct_mem_to_stream_desc>
	    &dmaDescA[i],
	    (i<7) ? (&dmaDescA[i+1]) : &dmaDescEND,
	    (alt_u32*)buff,
	    size, 0, i==0, i==7, 0);
	    buff+= size;
 4010730:	e0bff68b 	ldhu	r2,-38(fp)
 4010734:	1007883a 	mov	r3,r2
 4010738:	e0bff817 	ldw	r2,-32(fp)
 401073c:	10c5883a 	add	r2,r2,r3
 4010740:	e0bff815 	stw	r2,-32(fp)
    //  +63516 (0xf81c) bytes

    // frame buffer A
    alt_u8* buff = (alt_u8*)frameBufferA;
    int i;
    for(i = 0; i < 8; ++i) {
 4010744:	e0bff717 	ldw	r2,-36(fp)
 4010748:	10800044 	addi	r2,r2,1
 401074c:	e0bff715 	stw	r2,-36(fp)
 4010750:	e0bff717 	ldw	r2,-36(fp)
 4010754:	10800210 	cmplti	r2,r2,8
 4010758:	103fc91e 	bne	r2,zero,4010680 <init_and_start_framebuffer+0x24>
	    size, 0, i==0, i==7, 0);
	    buff+= size;
	}

    // frame buffer B
    buff = (alt_u8*)frameBufferB;
 401075c:	d0a00117 	ldw	r2,-32764(gp)
 4010760:	e0bff815 	stw	r2,-32(fp)
    for(i = 0; i < 8; ++i) {
 4010764:	e03ff715 	stw	zero,-36(fp)
 4010768:	00003406 	br	401083c <init_and_start_framebuffer+0x1e0>
        alt_u16 size = (i<7)?0xfffc:0xf81c;
 401076c:	e0bff717 	ldw	r2,-36(fp)
 4010770:	108001c8 	cmpgei	r2,r2,7
 4010774:	1000031e 	bne	r2,zero,4010784 <init_and_start_framebuffer+0x128>
 4010778:	00bfff04 	movi	r2,-4
 401077c:	e0bffc0d 	sth	r2,-16(fp)
 4010780:	00000206 	br	401078c <init_and_start_framebuffer+0x130>
 4010784:	00be0704 	movi	r2,-2020
 4010788:	e0bffc0d 	sth	r2,-16(fp)
 401078c:	e0bffc0b 	ldhu	r2,-16(fp)
 4010790:	e0bff60d 	sth	r2,-40(fp)
	alt_avalon_sgdma_construct_mem_to_stream_desc(
 4010794:	e0bff717 	ldw	r2,-36(fp)
 4010798:	1004917a 	slli	r2,r2,5
 401079c:	1007883a 	mov	r3,r2
 40107a0:	008100b4 	movhi	r2,1026
 40107a4:	10a30404 	addi	r2,r2,-29680
 40107a8:	1887883a 	add	r3,r3,r2
 40107ac:	e0fffb15 	stw	r3,-20(fp)
 40107b0:	e0bff717 	ldw	r2,-36(fp)
 40107b4:	108001c8 	cmpgei	r2,r2,7
 40107b8:	1000081e 	bne	r2,zero,40107dc <init_and_start_framebuffer+0x180>
 40107bc:	e0bff717 	ldw	r2,-36(fp)
 40107c0:	1004917a 	slli	r2,r2,5
 40107c4:	1007883a 	mov	r3,r2
 40107c8:	008100b4 	movhi	r2,1026
 40107cc:	10a30c04 	addi	r2,r2,-29648
 40107d0:	1887883a 	add	r3,r3,r2
 40107d4:	e0fffa15 	stw	r3,-24(fp)
 40107d8:	00000306 	br	40107e8 <init_and_start_framebuffer+0x18c>
 40107dc:	008100b4 	movhi	r2,1026
 40107e0:	10a34404 	addi	r2,r2,-29424
 40107e4:	e0bffa15 	stw	r2,-24(fp)
 40107e8:	e1bff817 	ldw	r6,-32(fp)
 40107ec:	e1fff60b 	ldhu	r7,-40(fp)
 40107f0:	e0bff717 	ldw	r2,-36(fp)
 40107f4:	1007003a 	cmpeq	r3,r2,zero
 40107f8:	e0bff717 	ldw	r2,-36(fp)
 40107fc:	108001e0 	cmpeqi	r2,r2,7
 4010800:	d8000015 	stw	zero,0(sp)
 4010804:	d8c00115 	stw	r3,4(sp)
 4010808:	d8800215 	stw	r2,8(sp)
 401080c:	d8000315 	stw	zero,12(sp)
 4010810:	e13ffb17 	ldw	r4,-20(fp)
 4010814:	e17ffa17 	ldw	r5,-24(fp)
 4010818:	40164240 	call	4016424 <alt_avalon_sgdma_construct_mem_to_stream_desc>
	    &dmaDescB[i],
	    (i<7) ? (&dmaDescB[i+1]) : &dmaDescBEND,
	    (alt_u32*)buff,
	    size, 0, i==0, i==7, 0);
	    buff+= size;
 401081c:	e0bff60b 	ldhu	r2,-40(fp)
 4010820:	1007883a 	mov	r3,r2
 4010824:	e0bff817 	ldw	r2,-32(fp)
 4010828:	10c5883a 	add	r2,r2,r3
 401082c:	e0bff815 	stw	r2,-32(fp)
	    buff+= size;
	}

    // frame buffer B
    buff = (alt_u8*)frameBufferB;
    for(i = 0; i < 8; ++i) {
 4010830:	e0bff717 	ldw	r2,-36(fp)
 4010834:	10800044 	addi	r2,r2,1
 4010838:	e0bff715 	stw	r2,-36(fp)
 401083c:	e0bff717 	ldw	r2,-36(fp)
 4010840:	10800210 	cmplti	r2,r2,8
 4010844:	103fc91e 	bne	r2,zero,401076c <init_and_start_framebuffer+0x110>
	    (alt_u32*)buff,
	    size, 0, i==0, i==7, 0);
	    buff+= size;
	}

	alt_avalon_sgdma_register_callback(
 4010848:	e13ff917 	ldw	r4,-28(fp)
 401084c:	01410074 	movhi	r5,1025
 4010850:	29414f04 	addi	r5,r5,1340
 4010854:	01800604 	movi	r6,24
 4010858:	e1fff917 	ldw	r7,-28(fp)
 401085c:	401651c0 	call	401651c <alt_avalon_sgdma_register_callback>
            dma, my_dma_callback,
            ALTERA_AVALON_SGDMA_CONTROL_IE_CHAIN_COMPLETED_MSK
            |ALTERA_AVALON_SGDMA_CONTROL_IE_GLOBAL_MSK,
            (void*)dma);

	alt_avalon_sgdma_do_async_transfer(dma, dmaDescA);
 4010860:	e13ff917 	ldw	r4,-28(fp)
 4010864:	014100b4 	movhi	r5,1026
 4010868:	2962bc04 	addi	r5,r5,-29968
 401086c:	40160100 	call	4016010 <alt_avalon_sgdma_do_async_transfer>
}
 4010870:	e037883a 	mov	sp,fp
 4010874:	dfc00117 	ldw	ra,4(sp)
 4010878:	df000017 	ldw	fp,0(sp)
 401087c:	dec00204 	addi	sp,sp,8
 4010880:	f800283a 	ret

04010884 <mem_cpy>:
/* String functions                                                      */
/*-----------------------------------------------------------------------*/

/* Copy memory to memory */
static
void mem_cpy (void* dst, const void* src, FFS_U32 cnt) {
 4010884:	defffa04 	addi	sp,sp,-24
 4010888:	df000515 	stw	fp,20(sp)
 401088c:	df000504 	addi	fp,sp,20
 4010890:	e13ffd15 	stw	r4,-12(fp)
 4010894:	e17ffe15 	stw	r5,-8(fp)
 4010898:	e1bfff15 	stw	r6,-4(fp)
   FFS_U8 *d = (FFS_U8*)dst;
 401089c:	e0bffd17 	ldw	r2,-12(fp)
 40108a0:	e0bffc15 	stw	r2,-16(fp)
   const FFS_U8 *s = (const FFS_U8*)src;
 40108a4:	e0bffe17 	ldw	r2,-8(fp)
 40108a8:	e0bffb15 	stw	r2,-20(fp)
      *(int*)d = *(int*)s;
      d += sizeof(int); s += sizeof(int);
      cnt -= sizeof(int);
   }
#endif
   while (cnt--)
 40108ac:	00000a06 	br	40108d8 <mem_cpy+0x54>
      *d++ = *s++;
 40108b0:	e0bffb17 	ldw	r2,-20(fp)
 40108b4:	10c00003 	ldbu	r3,0(r2)
 40108b8:	e0bffc17 	ldw	r2,-16(fp)
 40108bc:	10c00005 	stb	r3,0(r2)
 40108c0:	e0bffc17 	ldw	r2,-16(fp)
 40108c4:	10800044 	addi	r2,r2,1
 40108c8:	e0bffc15 	stw	r2,-16(fp)
 40108cc:	e0bffb17 	ldw	r2,-20(fp)
 40108d0:	10800044 	addi	r2,r2,1
 40108d4:	e0bffb15 	stw	r2,-20(fp)
      *(int*)d = *(int*)s;
      d += sizeof(int); s += sizeof(int);
      cnt -= sizeof(int);
   }
#endif
   while (cnt--)
 40108d8:	e0bfff17 	ldw	r2,-4(fp)
 40108dc:	10bfffc4 	addi	r2,r2,-1
 40108e0:	e0bfff15 	stw	r2,-4(fp)
 40108e4:	e0bfff17 	ldw	r2,-4(fp)
 40108e8:	10bfffd8 	cmpnei	r2,r2,-1
 40108ec:	103ff01e 	bne	r2,zero,40108b0 <mem_cpy+0x2c>
      *d++ = *s++;
}
 40108f0:	e037883a 	mov	sp,fp
 40108f4:	df000017 	ldw	fp,0(sp)
 40108f8:	dec00104 	addi	sp,sp,4
 40108fc:	f800283a 	ret

04010900 <mem_set>:

/* Fill memory */
static
void mem_set (void* dst, int val, FFS_U32 cnt) {
 4010900:	defffb04 	addi	sp,sp,-20
 4010904:	df000415 	stw	fp,16(sp)
 4010908:	df000404 	addi	fp,sp,16
 401090c:	e13ffd15 	stw	r4,-12(fp)
 4010910:	e17ffe15 	stw	r5,-8(fp)
 4010914:	e1bfff15 	stw	r6,-4(fp)
   FFS_U8 *d = (FFS_U8*)dst;
 4010918:	e0bffd17 	ldw	r2,-12(fp)
 401091c:	e0bffc15 	stw	r2,-16(fp)

   while (cnt--)
 4010920:	00000706 	br	4010940 <mem_set+0x40>
      *d++ = (FFS_U8)val;
 4010924:	e0bffe17 	ldw	r2,-8(fp)
 4010928:	1007883a 	mov	r3,r2
 401092c:	e0bffc17 	ldw	r2,-16(fp)
 4010930:	10c00005 	stb	r3,0(r2)
 4010934:	e0bffc17 	ldw	r2,-16(fp)
 4010938:	10800044 	addi	r2,r2,1
 401093c:	e0bffc15 	stw	r2,-16(fp)
/* Fill memory */
static
void mem_set (void* dst, int val, FFS_U32 cnt) {
   FFS_U8 *d = (FFS_U8*)dst;

   while (cnt--)
 4010940:	e0bfff17 	ldw	r2,-4(fp)
 4010944:	10bfffc4 	addi	r2,r2,-1
 4010948:	e0bfff15 	stw	r2,-4(fp)
 401094c:	e0bfff17 	ldw	r2,-4(fp)
 4010950:	10bfffd8 	cmpnei	r2,r2,-1
 4010954:	103ff31e 	bne	r2,zero,4010924 <mem_set+0x24>
      *d++ = (FFS_U8)val;
}
 4010958:	e037883a 	mov	sp,fp
 401095c:	df000017 	ldw	fp,0(sp)
 4010960:	dec00104 	addi	sp,sp,4
 4010964:	f800283a 	ret

04010968 <mem_cmp>:

/* Compare memory to memory */
static
int mem_cmp (const void* dst, const void* src, FFS_U32 cnt) {
 4010968:	defff904 	addi	sp,sp,-28
 401096c:	df000615 	stw	fp,24(sp)
 4010970:	df000604 	addi	fp,sp,24
 4010974:	e13ffd15 	stw	r4,-12(fp)
 4010978:	e17ffe15 	stw	r5,-8(fp)
 401097c:	e1bfff15 	stw	r6,-4(fp)
   const FFS_U8 *d = (const FFS_U8 *)dst, *s = (const FFS_U8 *)src;
 4010980:	e0bffd17 	ldw	r2,-12(fp)
 4010984:	e0bffc15 	stw	r2,-16(fp)
 4010988:	e0bffe17 	ldw	r2,-8(fp)
 401098c:	e0bffb15 	stw	r2,-20(fp)
   int r = 0;
 4010990:	e03ffa15 	stw	zero,-24(fp)

   while (cnt-- && (r = *d++ - *s++) == 0) ;
 4010994:	e0bfff17 	ldw	r2,-4(fp)
 4010998:	10bfffc4 	addi	r2,r2,-1
 401099c:	e0bfff15 	stw	r2,-4(fp)
 40109a0:	e0bfff17 	ldw	r2,-4(fp)
 40109a4:	10bfffe0 	cmpeqi	r2,r2,-1
 40109a8:	1000141e 	bne	r2,zero,40109fc <mem_cmp+0x94>
 40109ac:	e0bffc17 	ldw	r2,-16(fp)
 40109b0:	10800003 	ldbu	r2,0(r2)
 40109b4:	10c03fcc 	andi	r3,r2,255
 40109b8:	e0bffb17 	ldw	r2,-20(fp)
 40109bc:	10800003 	ldbu	r2,0(r2)
 40109c0:	10803fcc 	andi	r2,r2,255
 40109c4:	1885c83a 	sub	r2,r3,r2
 40109c8:	e0bffa15 	stw	r2,-24(fp)
 40109cc:	e0bffa17 	ldw	r2,-24(fp)
 40109d0:	1005003a 	cmpeq	r2,r2,zero
 40109d4:	1007883a 	mov	r3,r2
 40109d8:	e0bffc17 	ldw	r2,-16(fp)
 40109dc:	10800044 	addi	r2,r2,1
 40109e0:	e0bffc15 	stw	r2,-16(fp)
 40109e4:	e0bffb17 	ldw	r2,-20(fp)
 40109e8:	10800044 	addi	r2,r2,1
 40109ec:	e0bffb15 	stw	r2,-20(fp)
 40109f0:	18803fcc 	andi	r2,r3,255
 40109f4:	1004c03a 	cmpne	r2,r2,zero
 40109f8:	103fe61e 	bne	r2,zero,4010994 <mem_cmp+0x2c>
   return r;
 40109fc:	e0bffa17 	ldw	r2,-24(fp)
}
 4010a00:	e037883a 	mov	sp,fp
 4010a04:	df000017 	ldw	fp,0(sp)
 4010a08:	dec00104 	addi	sp,sp,4
 4010a0c:	f800283a 	ret

04010a10 <chk_chr>:

/* Check if chr is contained in the string */
static
int chk_chr (const char* str, int chr) {
 4010a10:	defffd04 	addi	sp,sp,-12
 4010a14:	df000215 	stw	fp,8(sp)
 4010a18:	df000204 	addi	fp,sp,8
 4010a1c:	e13ffe15 	stw	r4,-8(fp)
 4010a20:	e17fff15 	stw	r5,-4(fp)
   while (*str && *str != chr) str++;
 4010a24:	00000306 	br	4010a34 <chk_chr+0x24>
 4010a28:	e0bffe17 	ldw	r2,-8(fp)
 4010a2c:	10800044 	addi	r2,r2,1
 4010a30:	e0bffe15 	stw	r2,-8(fp)
 4010a34:	e0bffe17 	ldw	r2,-8(fp)
 4010a38:	10800003 	ldbu	r2,0(r2)
 4010a3c:	10803fcc 	andi	r2,r2,255
 4010a40:	1080201c 	xori	r2,r2,128
 4010a44:	10bfe004 	addi	r2,r2,-128
 4010a48:	1005003a 	cmpeq	r2,r2,zero
 4010a4c:	1000071e 	bne	r2,zero,4010a6c <chk_chr+0x5c>
 4010a50:	e0bffe17 	ldw	r2,-8(fp)
 4010a54:	10800003 	ldbu	r2,0(r2)
 4010a58:	10c03fcc 	andi	r3,r2,255
 4010a5c:	18c0201c 	xori	r3,r3,128
 4010a60:	18ffe004 	addi	r3,r3,-128
 4010a64:	e0bfff17 	ldw	r2,-4(fp)
 4010a68:	18bfef1e 	bne	r3,r2,4010a28 <chk_chr+0x18>
   return *str;
 4010a6c:	e0bffe17 	ldw	r2,-8(fp)
 4010a70:	10800003 	ldbu	r2,0(r2)
 4010a74:	10803fcc 	andi	r2,r2,255
 4010a78:	1080201c 	xori	r2,r2,128
 4010a7c:	10bfe004 	addi	r2,r2,-128
}
 4010a80:	e037883a 	mov	sp,fp
 4010a84:	df000017 	ldw	fp,0(sp)
 4010a88:	dec00104 	addi	sp,sp,4
 4010a8c:	f800283a 	ret

04010a90 <move_window>:
static
FRESULT move_window (
   FATFS *fs,     /* File system object */
   FFS_U32 sector   /* Sector number to make appearance in the fs->win[] */
)              /* Move to zero only writes back dirty window */
{
 4010a90:	defffa04 	addi	sp,sp,-24
 4010a94:	dfc00515 	stw	ra,20(sp)
 4010a98:	df000415 	stw	fp,16(sp)
 4010a9c:	df000404 	addi	fp,sp,16
 4010aa0:	e13ffd15 	stw	r4,-12(fp)
 4010aa4:	e17ffe15 	stw	r5,-8(fp)
   FFS_U32 wsect;


   wsect = fs->winsect;
 4010aa8:	e0bffd17 	ldw	r2,-12(fp)
 4010aac:	10800817 	ldw	r2,32(r2)
 4010ab0:	e0bffc15 	stw	r2,-16(fp)
   if (wsect != sector) {  /* Changed current window */
 4010ab4:	e0fffc17 	ldw	r3,-16(fp)
 4010ab8:	e0bffe17 	ldw	r2,-8(fp)
 4010abc:	18801326 	beq	r3,r2,4010b0c <move_window+0x7c>
               disk_write(fs->drv, fs->win, wsect, 1);
            }
         }
      }
#endif
      if (sector) {
 4010ac0:	e0bffe17 	ldw	r2,-8(fp)
 4010ac4:	1005003a 	cmpeq	r2,r2,zero
 4010ac8:	1000101e 	bne	r2,zero,4010b0c <move_window+0x7c>
         if (disk_read(fs->drv, fs->win, sector, 1) != RES_OK)
 4010acc:	e0bffd17 	ldw	r2,-12(fp)
 4010ad0:	10800043 	ldbu	r2,1(r2)
 4010ad4:	11003fcc 	andi	r4,r2,255
 4010ad8:	e0bffd17 	ldw	r2,-12(fp)
 4010adc:	11400904 	addi	r5,r2,36
 4010ae0:	e1bffe17 	ldw	r6,-8(fp)
 4010ae4:	01c00044 	movi	r7,1
 4010ae8:	4013fcc0 	call	4013fcc <ffs_DiskIORead>
 4010aec:	1005003a 	cmpeq	r2,r2,zero
 4010af0:	1000031e 	bne	r2,zero,4010b00 <move_window+0x70>
            return FR_DISK_ERR;
 4010af4:	00800044 	movi	r2,1
 4010af8:	e0bfff15 	stw	r2,-4(fp)
 4010afc:	00000406 	br	4010b10 <move_window+0x80>
         fs->winsect = sector;
 4010b00:	e0fffd17 	ldw	r3,-12(fp)
 4010b04:	e0bffe17 	ldw	r2,-8(fp)
 4010b08:	18800815 	stw	r2,32(r3)
      }
   }

   return FR_OK;
 4010b0c:	e03fff15 	stw	zero,-4(fp)
 4010b10:	e0bfff17 	ldw	r2,-4(fp)
}
 4010b14:	e037883a 	mov	sp,fp
 4010b18:	dfc00117 	ldw	ra,4(sp)
 4010b1c:	df000017 	ldw	fp,0(sp)
 4010b20:	dec00204 	addi	sp,sp,8
 4010b24:	f800283a 	ret

04010b28 <clust2sect>:

FFS_U32 clust2sect (   /* !=0: Sector number, 0: Failed - invalid cluster# */
   FATFS *fs,     /* File system object */
   FFS_U32 clst     /* Cluster# to be converted */
)
{
 4010b28:	defffb04 	addi	sp,sp,-20
 4010b2c:	dfc00415 	stw	ra,16(sp)
 4010b30:	df000315 	stw	fp,12(sp)
 4010b34:	df000304 	addi	fp,sp,12
 4010b38:	e13ffd15 	stw	r4,-12(fp)
 4010b3c:	e17ffe15 	stw	r5,-8(fp)
   clst -= 2;
 4010b40:	e0bffe17 	ldw	r2,-8(fp)
 4010b44:	10bfff84 	addi	r2,r2,-2
 4010b48:	e0bffe15 	stw	r2,-8(fp)
   if (clst >= (fs->n_fatent - 2)) return 0;    /* Invalid cluster# */
 4010b4c:	e0bffd17 	ldw	r2,-12(fp)
 4010b50:	10800317 	ldw	r2,12(r2)
 4010b54:	10ffff84 	addi	r3,r2,-2
 4010b58:	e0bffe17 	ldw	r2,-8(fp)
 4010b5c:	10c00236 	bltu	r2,r3,4010b68 <clust2sect+0x40>
 4010b60:	e03fff15 	stw	zero,-4(fp)
 4010b64:	00000a06 	br	4010b90 <clust2sect+0x68>
   return clst * fs->csize + fs->database;
 4010b68:	e0bffd17 	ldw	r2,-12(fp)
 4010b6c:	10800083 	ldbu	r2,2(r2)
 4010b70:	11003fcc 	andi	r4,r2,255
 4010b74:	e17ffe17 	ldw	r5,-8(fp)
 4010b78:	4014cf40 	call	4014cf4 <__mulsi3>
 4010b7c:	1007883a 	mov	r3,r2
 4010b80:	e0bffd17 	ldw	r2,-12(fp)
 4010b84:	10800717 	ldw	r2,28(r2)
 4010b88:	1887883a 	add	r3,r3,r2
 4010b8c:	e0ffff15 	stw	r3,-4(fp)
 4010b90:	e0bfff17 	ldw	r2,-4(fp)
}
 4010b94:	e037883a 	mov	sp,fp
 4010b98:	dfc00117 	ldw	ra,4(sp)
 4010b9c:	df000017 	ldw	fp,0(sp)
 4010ba0:	dec00204 	addi	sp,sp,8
 4010ba4:	f800283a 	ret

04010ba8 <get_fat>:

FFS_U32 get_fat (   /* 0xFFFFFFFF:Disk error, 1:Internal error, Else:Cluster status */
   FATFS *fs,  /* File system object */
   FFS_U32 clst  /* Cluster# to get the link information */
)
{
 4010ba8:	defff604 	addi	sp,sp,-40
 4010bac:	dfc00915 	stw	ra,36(sp)
 4010bb0:	df000815 	stw	fp,32(sp)
 4010bb4:	df000804 	addi	fp,sp,32
 4010bb8:	e13ffb15 	stw	r4,-20(fp)
 4010bbc:	e17ffc15 	stw	r5,-16(fp)
   FFS_U32 wc, bc;
   FFS_U8 *p;


   if (clst < 2 || clst >= fs->n_fatent)  /* Chack range */
 4010bc0:	e0bffc17 	ldw	r2,-16(fp)
 4010bc4:	108000b0 	cmpltui	r2,r2,2
 4010bc8:	1000041e 	bne	r2,zero,4010bdc <get_fat+0x34>
 4010bcc:	e0bffb17 	ldw	r2,-20(fp)
 4010bd0:	10c00317 	ldw	r3,12(r2)
 4010bd4:	e0bffc17 	ldw	r2,-16(fp)
 4010bd8:	10c00336 	bltu	r2,r3,4010be8 <get_fat+0x40>
      return 1;
 4010bdc:	00800044 	movi	r2,1
 4010be0:	e0bfff15 	stw	r2,-4(fp)
 4010be4:	00009706 	br	4010e44 <get_fat+0x29c>

   switch (fs->fs_type) {
 4010be8:	e0bffb17 	ldw	r2,-20(fp)
 4010bec:	10800003 	ldbu	r2,0(r2)
 4010bf0:	10803fcc 	andi	r2,r2,255
 4010bf4:	e0bffe15 	stw	r2,-8(fp)
 4010bf8:	e0fffe17 	ldw	r3,-8(fp)
 4010bfc:	188000a0 	cmpeqi	r2,r3,2
 4010c00:	1000461e 	bne	r2,zero,4010d1c <get_fat+0x174>
 4010c04:	e0fffe17 	ldw	r3,-8(fp)
 4010c08:	188000e0 	cmpeqi	r2,r3,3
 4010c0c:	1000601e 	bne	r2,zero,4010d90 <get_fat+0x1e8>
 4010c10:	e0fffe17 	ldw	r3,-8(fp)
 4010c14:	18800060 	cmpeqi	r2,r3,1
 4010c18:	1000011e 	bne	r2,zero,4010c20 <get_fat+0x78>
 4010c1c:	00008706 	br	4010e3c <get_fat+0x294>
   case FS_FAT12 :
      bc = (FFS_U32)clst; bc += bc / 2;
 4010c20:	e0bffc17 	ldw	r2,-16(fp)
 4010c24:	e0bff915 	stw	r2,-28(fp)
 4010c28:	e0bff917 	ldw	r2,-28(fp)
 4010c2c:	1006d07a 	srli	r3,r2,1
 4010c30:	e0bff917 	ldw	r2,-28(fp)
 4010c34:	10c5883a 	add	r2,r2,r3
 4010c38:	e0bff915 	stw	r2,-28(fp)
      if (move_window(fs, fs->fatbase + (bc / SS(fs)))) break;
 4010c3c:	e0bffb17 	ldw	r2,-20(fp)
 4010c40:	10c00517 	ldw	r3,20(r2)
 4010c44:	e0bff917 	ldw	r2,-28(fp)
 4010c48:	1004d27a 	srli	r2,r2,9
 4010c4c:	188b883a 	add	r5,r3,r2
 4010c50:	e13ffb17 	ldw	r4,-20(fp)
 4010c54:	4010a900 	call	4010a90 <move_window>
 4010c58:	1004c03a 	cmpne	r2,r2,zero
 4010c5c:	1000771e 	bne	r2,zero,4010e3c <get_fat+0x294>
      wc = fs->win[bc % SS(fs)]; bc++;
 4010c60:	e0bff917 	ldw	r2,-28(fp)
 4010c64:	10c07fcc 	andi	r3,r2,511
 4010c68:	e0bffb17 	ldw	r2,-20(fp)
 4010c6c:	1885883a 	add	r2,r3,r2
 4010c70:	10800904 	addi	r2,r2,36
 4010c74:	10800003 	ldbu	r2,0(r2)
 4010c78:	10803fcc 	andi	r2,r2,255
 4010c7c:	e0bffa15 	stw	r2,-24(fp)
 4010c80:	e0bff917 	ldw	r2,-28(fp)
 4010c84:	10800044 	addi	r2,r2,1
 4010c88:	e0bff915 	stw	r2,-28(fp)
      if (move_window(fs, fs->fatbase + (bc / SS(fs)))) break;
 4010c8c:	e0bffb17 	ldw	r2,-20(fp)
 4010c90:	10c00517 	ldw	r3,20(r2)
 4010c94:	e0bff917 	ldw	r2,-28(fp)
 4010c98:	1004d27a 	srli	r2,r2,9
 4010c9c:	188b883a 	add	r5,r3,r2
 4010ca0:	e13ffb17 	ldw	r4,-20(fp)
 4010ca4:	4010a900 	call	4010a90 <move_window>
 4010ca8:	1004c03a 	cmpne	r2,r2,zero
 4010cac:	1000631e 	bne	r2,zero,4010e3c <get_fat+0x294>
      wc |= fs->win[bc % SS(fs)] << 8;
 4010cb0:	e0bff917 	ldw	r2,-28(fp)
 4010cb4:	10c07fcc 	andi	r3,r2,511
 4010cb8:	e0bffb17 	ldw	r2,-20(fp)
 4010cbc:	1885883a 	add	r2,r3,r2
 4010cc0:	10800904 	addi	r2,r2,36
 4010cc4:	10800003 	ldbu	r2,0(r2)
 4010cc8:	10803fcc 	andi	r2,r2,255
 4010ccc:	1004923a 	slli	r2,r2,8
 4010cd0:	1007883a 	mov	r3,r2
 4010cd4:	e0bffa17 	ldw	r2,-24(fp)
 4010cd8:	10c4b03a 	or	r2,r2,r3
 4010cdc:	e0bffa15 	stw	r2,-24(fp)
      return (clst & 1) ? (wc >> 4) : (wc & 0xFFF);
 4010ce0:	e0bffc17 	ldw	r2,-16(fp)
 4010ce4:	1080004c 	andi	r2,r2,1
 4010ce8:	10803fcc 	andi	r2,r2,255
 4010cec:	1005003a 	cmpeq	r2,r2,zero
 4010cf0:	1000041e 	bne	r2,zero,4010d04 <get_fat+0x15c>
 4010cf4:	e0bffa17 	ldw	r2,-24(fp)
 4010cf8:	1004d13a 	srli	r2,r2,4
 4010cfc:	e0bffd15 	stw	r2,-12(fp)
 4010d00:	00000306 	br	4010d10 <get_fat+0x168>
 4010d04:	e0bffa17 	ldw	r2,-24(fp)
 4010d08:	1083ffcc 	andi	r2,r2,4095
 4010d0c:	e0bffd15 	stw	r2,-12(fp)
 4010d10:	e0bffd17 	ldw	r2,-12(fp)
 4010d14:	e0bfff15 	stw	r2,-4(fp)
 4010d18:	00004a06 	br	4010e44 <get_fat+0x29c>

   case FS_FAT16 :
      if (move_window(fs, fs->fatbase + (clst / (SS(fs) / 2)))) break;
 4010d1c:	e0bffb17 	ldw	r2,-20(fp)
 4010d20:	10c00517 	ldw	r3,20(r2)
 4010d24:	e0bffc17 	ldw	r2,-16(fp)
 4010d28:	1004d23a 	srli	r2,r2,8
 4010d2c:	188b883a 	add	r5,r3,r2
 4010d30:	e13ffb17 	ldw	r4,-20(fp)
 4010d34:	4010a900 	call	4010a90 <move_window>
 4010d38:	1004c03a 	cmpne	r2,r2,zero
 4010d3c:	10003f1e 	bne	r2,zero,4010e3c <get_fat+0x294>
      p = &fs->win[clst * 2 % SS(fs)];
 4010d40:	e0bffb17 	ldw	r2,-20(fp)
 4010d44:	10c00904 	addi	r3,r2,36
 4010d48:	e0bffc17 	ldw	r2,-16(fp)
 4010d4c:	1085883a 	add	r2,r2,r2
 4010d50:	10807fcc 	andi	r2,r2,511
 4010d54:	1885883a 	add	r2,r3,r2
 4010d58:	e0bff815 	stw	r2,-32(fp)
      return LD_WORD(p);
 4010d5c:	e0bff817 	ldw	r2,-32(fp)
 4010d60:	10800044 	addi	r2,r2,1
 4010d64:	10800003 	ldbu	r2,0(r2)
 4010d68:	10803fcc 	andi	r2,r2,255
 4010d6c:	1004923a 	slli	r2,r2,8
 4010d70:	1007883a 	mov	r3,r2
 4010d74:	e0bff817 	ldw	r2,-32(fp)
 4010d78:	10800003 	ldbu	r2,0(r2)
 4010d7c:	10803fcc 	andi	r2,r2,255
 4010d80:	1884b03a 	or	r2,r3,r2
 4010d84:	10bfffcc 	andi	r2,r2,65535
 4010d88:	e0bfff15 	stw	r2,-4(fp)
 4010d8c:	00002d06 	br	4010e44 <get_fat+0x29c>

   case FS_FAT32 :
      if (move_window(fs, fs->fatbase + (clst / (SS(fs) / 4)))) break;
 4010d90:	e0bffb17 	ldw	r2,-20(fp)
 4010d94:	10c00517 	ldw	r3,20(r2)
 4010d98:	e0bffc17 	ldw	r2,-16(fp)
 4010d9c:	1004d1fa 	srli	r2,r2,7
 4010da0:	188b883a 	add	r5,r3,r2
 4010da4:	e13ffb17 	ldw	r4,-20(fp)
 4010da8:	4010a900 	call	4010a90 <move_window>
 4010dac:	1004c03a 	cmpne	r2,r2,zero
 4010db0:	1000221e 	bne	r2,zero,4010e3c <get_fat+0x294>
      p = &fs->win[clst * 4 % SS(fs)];
 4010db4:	e0bffb17 	ldw	r2,-20(fp)
 4010db8:	10c00904 	addi	r3,r2,36
 4010dbc:	e0bffc17 	ldw	r2,-16(fp)
 4010dc0:	1085883a 	add	r2,r2,r2
 4010dc4:	1085883a 	add	r2,r2,r2
 4010dc8:	10807fcc 	andi	r2,r2,511
 4010dcc:	1885883a 	add	r2,r3,r2
 4010dd0:	e0bff815 	stw	r2,-32(fp)
      return LD_DWORD(p) & 0x0FFFFFFF;
 4010dd4:	e0bff817 	ldw	r2,-32(fp)
 4010dd8:	108000c4 	addi	r2,r2,3
 4010ddc:	10800003 	ldbu	r2,0(r2)
 4010de0:	10803fcc 	andi	r2,r2,255
 4010de4:	1006963a 	slli	r3,r2,24
 4010de8:	e0bff817 	ldw	r2,-32(fp)
 4010dec:	10800084 	addi	r2,r2,2
 4010df0:	10800003 	ldbu	r2,0(r2)
 4010df4:	10803fcc 	andi	r2,r2,255
 4010df8:	1004943a 	slli	r2,r2,16
 4010dfc:	1886b03a 	or	r3,r3,r2
 4010e00:	e0bff817 	ldw	r2,-32(fp)
 4010e04:	10800044 	addi	r2,r2,1
 4010e08:	10800003 	ldbu	r2,0(r2)
 4010e0c:	10803fcc 	andi	r2,r2,255
 4010e10:	1004923a 	slli	r2,r2,8
 4010e14:	1886b03a 	or	r3,r3,r2
 4010e18:	e0bff817 	ldw	r2,-32(fp)
 4010e1c:	10800003 	ldbu	r2,0(r2)
 4010e20:	10803fcc 	andi	r2,r2,255
 4010e24:	1886b03a 	or	r3,r3,r2
 4010e28:	00840034 	movhi	r2,4096
 4010e2c:	10bfffc4 	addi	r2,r2,-1
 4010e30:	1886703a 	and	r3,r3,r2
 4010e34:	e0ffff15 	stw	r3,-4(fp)
 4010e38:	00000206 	br	4010e44 <get_fat+0x29c>
   }

   return 0xFFFFFFFF;   /* An error occurred at the disk I/O layer */
 4010e3c:	00ffffc4 	movi	r3,-1
 4010e40:	e0ffff15 	stw	r3,-4(fp)
 4010e44:	e0bfff17 	ldw	r2,-4(fp)
}
 4010e48:	e037883a 	mov	sp,fp
 4010e4c:	dfc00117 	ldw	ra,4(sp)
 4010e50:	df000017 	ldw	fp,0(sp)
 4010e54:	dec00204 	addi	sp,sp,8
 4010e58:	f800283a 	ret

04010e5c <dir_sdi>:
static
FRESULT dir_sdi (
   DIR *dj,    /* Pointer to directory object */
   FFS_U16 idx    /* Directory index number */
)
{
 4010e5c:	defff904 	addi	sp,sp,-28
 4010e60:	dfc00615 	stw	ra,24(sp)
 4010e64:	df000515 	stw	fp,20(sp)
 4010e68:	df000504 	addi	fp,sp,20
 4010e6c:	e13ffd15 	stw	r4,-12(fp)
 4010e70:	e17ffe0d 	sth	r5,-8(fp)
   FFS_U32 clst;
   FFS_U16 ic;


   dj->index = idx;
 4010e74:	e0fffd17 	ldw	r3,-12(fp)
 4010e78:	e0bffe0b 	ldhu	r2,-8(fp)
 4010e7c:	1880018d 	sth	r2,6(r3)
   clst = dj->sclust;
 4010e80:	e0bffd17 	ldw	r2,-12(fp)
 4010e84:	10800217 	ldw	r2,8(r2)
 4010e88:	e0bffc15 	stw	r2,-16(fp)
   if (clst == 1 || clst >= dj->fs->n_fatent)   /* Check start cluster range */
 4010e8c:	e0bffc17 	ldw	r2,-16(fp)
 4010e90:	10800060 	cmpeqi	r2,r2,1
 4010e94:	1000051e 	bne	r2,zero,4010eac <dir_sdi+0x50>
 4010e98:	e0bffd17 	ldw	r2,-12(fp)
 4010e9c:	10800017 	ldw	r2,0(r2)
 4010ea0:	10c00317 	ldw	r3,12(r2)
 4010ea4:	e0bffc17 	ldw	r2,-16(fp)
 4010ea8:	10c00336 	bltu	r2,r3,4010eb8 <dir_sdi+0x5c>
      return FR_INT_ERR;
 4010eac:	00800084 	movi	r2,2
 4010eb0:	e0bfff15 	stw	r2,-4(fp)
 4010eb4:	00006206 	br	4011040 <dir_sdi+0x1e4>
   if (!clst && dj->fs->fs_type == FS_FAT32) /* Replace cluster# 0 with root cluster# if in FAT32 */
 4010eb8:	e0bffc17 	ldw	r2,-16(fp)
 4010ebc:	1004c03a 	cmpne	r2,r2,zero
 4010ec0:	10000a1e 	bne	r2,zero,4010eec <dir_sdi+0x90>
 4010ec4:	e0bffd17 	ldw	r2,-12(fp)
 4010ec8:	10800017 	ldw	r2,0(r2)
 4010ecc:	10800003 	ldbu	r2,0(r2)
 4010ed0:	10803fcc 	andi	r2,r2,255
 4010ed4:	108000d8 	cmpnei	r2,r2,3
 4010ed8:	1000041e 	bne	r2,zero,4010eec <dir_sdi+0x90>
      clst = dj->fs->dirbase;
 4010edc:	e0bffd17 	ldw	r2,-12(fp)
 4010ee0:	10800017 	ldw	r2,0(r2)
 4010ee4:	10800617 	ldw	r2,24(r2)
 4010ee8:	e0bffc15 	stw	r2,-16(fp)

   if (clst == 0) {  /* Static table (root-dir in FAT12/16) */
 4010eec:	e0bffc17 	ldw	r2,-16(fp)
 4010ef0:	1004c03a 	cmpne	r2,r2,zero
 4010ef4:	1000161e 	bne	r2,zero,4010f50 <dir_sdi+0xf4>
      dj->clust = clst;
 4010ef8:	e0fffd17 	ldw	r3,-12(fp)
 4010efc:	e0bffc17 	ldw	r2,-16(fp)
 4010f00:	18800315 	stw	r2,12(r3)
      if (idx >= dj->fs->n_rootdir)    /* Index is out of range */
 4010f04:	e0bffd17 	ldw	r2,-12(fp)
 4010f08:	10800017 	ldw	r2,0(r2)
 4010f0c:	1080020b 	ldhu	r2,8(r2)
 4010f10:	10ffffcc 	andi	r3,r2,65535
 4010f14:	e0bffe0b 	ldhu	r2,-8(fp)
 4010f18:	10c00336 	bltu	r2,r3,4010f28 <dir_sdi+0xcc>
         return FR_INT_ERR;
 4010f1c:	00800084 	movi	r2,2
 4010f20:	e0bfff15 	stw	r2,-4(fp)
 4010f24:	00004606 	br	4011040 <dir_sdi+0x1e4>
      dj->sect = dj->fs->dirbase + idx / (SS(dj->fs) / SZ_DIR);   /* Sector# */
 4010f28:	e0bffd17 	ldw	r2,-12(fp)
 4010f2c:	10800017 	ldw	r2,0(r2)
 4010f30:	10c00617 	ldw	r3,24(r2)
 4010f34:	e0bffe0b 	ldhu	r2,-8(fp)
 4010f38:	1004d13a 	srli	r2,r2,4
 4010f3c:	10bfffcc 	andi	r2,r2,65535
 4010f40:	1887883a 	add	r3,r3,r2
 4010f44:	e0bffd17 	ldw	r2,-12(fp)
 4010f48:	10c00415 	stw	r3,16(r2)
 4010f4c:	00003206 	br	4011018 <dir_sdi+0x1bc>
   }
   else {            /* Dynamic table (sub-dirs or root-dir in FAT32) */
      ic = SS(dj->fs) / SZ_DIR * dj->fs->csize; /* Entries per cluster */
 4010f50:	e0bffd17 	ldw	r2,-12(fp)
 4010f54:	10800017 	ldw	r2,0(r2)
 4010f58:	10800083 	ldbu	r2,2(r2)
 4010f5c:	10803fcc 	andi	r2,r2,255
 4010f60:	1004913a 	slli	r2,r2,4
 4010f64:	e0bffb0d 	sth	r2,-20(fp)
      while (idx >= ic) {  /* Follow cluster chain */
 4010f68:	00001a06 	br	4010fd4 <dir_sdi+0x178>
         clst = get_fat(dj->fs, clst);          /* Get next cluster */
 4010f6c:	e0bffd17 	ldw	r2,-12(fp)
 4010f70:	11000017 	ldw	r4,0(r2)
 4010f74:	e17ffc17 	ldw	r5,-16(fp)
 4010f78:	4010ba80 	call	4010ba8 <get_fat>
 4010f7c:	e0bffc15 	stw	r2,-16(fp)
         if (clst == 0xFFFFFFFF) return FR_DISK_ERR;  /* Disk error */
 4010f80:	e0bffc17 	ldw	r2,-16(fp)
 4010f84:	10bfffd8 	cmpnei	r2,r2,-1
 4010f88:	1000031e 	bne	r2,zero,4010f98 <dir_sdi+0x13c>
 4010f8c:	00800044 	movi	r2,1
 4010f90:	e0bfff15 	stw	r2,-4(fp)
 4010f94:	00002a06 	br	4011040 <dir_sdi+0x1e4>
         if (clst < 2 || clst >= dj->fs->n_fatent) /* Reached to end of table or int error */
 4010f98:	e0bffc17 	ldw	r2,-16(fp)
 4010f9c:	108000b0 	cmpltui	r2,r2,2
 4010fa0:	1000051e 	bne	r2,zero,4010fb8 <dir_sdi+0x15c>
 4010fa4:	e0bffd17 	ldw	r2,-12(fp)
 4010fa8:	10800017 	ldw	r2,0(r2)
 4010fac:	10c00317 	ldw	r3,12(r2)
 4010fb0:	e0bffc17 	ldw	r2,-16(fp)
 4010fb4:	10c00336 	bltu	r2,r3,4010fc4 <dir_sdi+0x168>
            return FR_INT_ERR;
 4010fb8:	00800084 	movi	r2,2
 4010fbc:	e0bfff15 	stw	r2,-4(fp)
 4010fc0:	00001f06 	br	4011040 <dir_sdi+0x1e4>
         idx -= ic;
 4010fc4:	e0bffe0b 	ldhu	r2,-8(fp)
 4010fc8:	e0fffb0b 	ldhu	r3,-20(fp)
 4010fcc:	10c5c83a 	sub	r2,r2,r3
 4010fd0:	e0bffe0d 	sth	r2,-8(fp)
         return FR_INT_ERR;
      dj->sect = dj->fs->dirbase + idx / (SS(dj->fs) / SZ_DIR);   /* Sector# */
   }
   else {            /* Dynamic table (sub-dirs or root-dir in FAT32) */
      ic = SS(dj->fs) / SZ_DIR * dj->fs->csize; /* Entries per cluster */
      while (idx >= ic) {  /* Follow cluster chain */
 4010fd4:	e0fffe0b 	ldhu	r3,-8(fp)
 4010fd8:	e0bffb0b 	ldhu	r2,-20(fp)
 4010fdc:	18bfe32e 	bgeu	r3,r2,4010f6c <dir_sdi+0x110>
         if (clst == 0xFFFFFFFF) return FR_DISK_ERR;  /* Disk error */
         if (clst < 2 || clst >= dj->fs->n_fatent) /* Reached to end of table or int error */
            return FR_INT_ERR;
         idx -= ic;
      }
      dj->clust = clst;
 4010fe0:	e0fffd17 	ldw	r3,-12(fp)
 4010fe4:	e0bffc17 	ldw	r2,-16(fp)
 4010fe8:	18800315 	stw	r2,12(r3)
      dj->sect = clust2sect(dj->fs, clst) + idx / (SS(dj->fs) / SZ_DIR);   /* Sector# */
 4010fec:	e0bffd17 	ldw	r2,-12(fp)
 4010ff0:	11000017 	ldw	r4,0(r2)
 4010ff4:	e17ffc17 	ldw	r5,-16(fp)
 4010ff8:	4010b280 	call	4010b28 <clust2sect>
 4010ffc:	1007883a 	mov	r3,r2
 4011000:	e0bffe0b 	ldhu	r2,-8(fp)
 4011004:	1004d13a 	srli	r2,r2,4
 4011008:	10bfffcc 	andi	r2,r2,65535
 401100c:	1887883a 	add	r3,r3,r2
 4011010:	e0bffd17 	ldw	r2,-12(fp)
 4011014:	10c00415 	stw	r3,16(r2)
   }

   dj->dir = dj->fs->win + (idx % (SS(dj->fs) / SZ_DIR)) * SZ_DIR;   /* Ptr to the entry in the sector */
 4011018:	e0bffd17 	ldw	r2,-12(fp)
 401101c:	10800017 	ldw	r2,0(r2)
 4011020:	10c00904 	addi	r3,r2,36
 4011024:	e0bffe0b 	ldhu	r2,-8(fp)
 4011028:	108003cc 	andi	r2,r2,15
 401102c:	1004917a 	slli	r2,r2,5
 4011030:	1887883a 	add	r3,r3,r2
 4011034:	e0bffd17 	ldw	r2,-12(fp)
 4011038:	10c00515 	stw	r3,20(r2)

   return FR_OK;  /* Seek succeeded */
 401103c:	e03fff15 	stw	zero,-4(fp)
 4011040:	e0bfff17 	ldw	r2,-4(fp)
}
 4011044:	e037883a 	mov	sp,fp
 4011048:	dfc00117 	ldw	ra,4(sp)
 401104c:	df000017 	ldw	fp,0(sp)
 4011050:	dec00204 	addi	sp,sp,8
 4011054:	f800283a 	ret

04011058 <dir_next>:
static
FRESULT dir_next (   /* FR_OK:Succeeded, FR_NO_FILE:End of table, FR_DENIED:EOT and could not stretch */
   DIR *dj,    /* Pointer to directory object */
   int stretch    /* 0: Do not stretch table, 1: Stretch table if needed */
)
{
 4011058:	defff904 	addi	sp,sp,-28
 401105c:	dfc00615 	stw	ra,24(sp)
 4011060:	df000515 	stw	fp,20(sp)
 4011064:	df000504 	addi	fp,sp,20
 4011068:	e13ffd15 	stw	r4,-12(fp)
 401106c:	e17ffe15 	stw	r5,-8(fp)
   FFS_U32 clst;
   FFS_U16 i;


//   stretch = stretch;      /* To suppress warning on read-only cfg. */
   i = dj->index + 1;
 4011070:	e0bffd17 	ldw	r2,-12(fp)
 4011074:	1080018b 	ldhu	r2,6(r2)
 4011078:	10800044 	addi	r2,r2,1
 401107c:	e0bffb0d 	sth	r2,-20(fp)
   if (!i || !dj->sect) /* Report EOT when index has reached 65535 */
 4011080:	e0bffb0b 	ldhu	r2,-20(fp)
 4011084:	1005003a 	cmpeq	r2,r2,zero
 4011088:	1000041e 	bne	r2,zero,401109c <dir_next+0x44>
 401108c:	e0bffd17 	ldw	r2,-12(fp)
 4011090:	10800417 	ldw	r2,16(r2)
 4011094:	1004c03a 	cmpne	r2,r2,zero
 4011098:	1000031e 	bne	r2,zero,40110a8 <dir_next+0x50>
      return FR_NO_FILE;
 401109c:	00800104 	movi	r2,4
 40110a0:	e0bfff15 	stw	r2,-4(fp)
 40110a4:	00005206 	br	40111f0 <dir_next+0x198>

   if (!(i % (SS(dj->fs) / SZ_DIR))) { /* Sector changed? */
 40110a8:	e0bffb0b 	ldhu	r2,-20(fp)
 40110ac:	108003cc 	andi	r2,r2,15
 40110b0:	1004c03a 	cmpne	r2,r2,zero
 40110b4:	1000411e 	bne	r2,zero,40111bc <dir_next+0x164>
      dj->sect++;             /* Next sector */
 40110b8:	e0bffd17 	ldw	r2,-12(fp)
 40110bc:	10800417 	ldw	r2,16(r2)
 40110c0:	10c00044 	addi	r3,r2,1
 40110c4:	e0bffd17 	ldw	r2,-12(fp)
 40110c8:	10c00415 	stw	r3,16(r2)

      if (dj->clust == 0) {   /* Static table */
 40110cc:	e0bffd17 	ldw	r2,-12(fp)
 40110d0:	10800317 	ldw	r2,12(r2)
 40110d4:	1004c03a 	cmpne	r2,r2,zero
 40110d8:	1000091e 	bne	r2,zero,4011100 <dir_next+0xa8>
         if (i >= dj->fs->n_rootdir)   /* Report EOT when end of table */
 40110dc:	e0bffd17 	ldw	r2,-12(fp)
 40110e0:	10800017 	ldw	r2,0(r2)
 40110e4:	1080020b 	ldhu	r2,8(r2)
 40110e8:	10ffffcc 	andi	r3,r2,65535
 40110ec:	e0bffb0b 	ldhu	r2,-20(fp)
 40110f0:	10c03236 	bltu	r2,r3,40111bc <dir_next+0x164>
            return FR_NO_FILE;
 40110f4:	00800104 	movi	r2,4
 40110f8:	e0bfff15 	stw	r2,-4(fp)
 40110fc:	00003c06 	br	40111f0 <dir_next+0x198>
      }
      else {               /* Dynamic table */
         if (((i / (SS(dj->fs) / SZ_DIR)) & (dj->fs->csize - 1)) == 0) {   /* Cluster changed? */
 4011100:	e0bffb0b 	ldhu	r2,-20(fp)
 4011104:	1004d13a 	srli	r2,r2,4
 4011108:	10ffffcc 	andi	r3,r2,65535
 401110c:	e0bffd17 	ldw	r2,-12(fp)
 4011110:	10800017 	ldw	r2,0(r2)
 4011114:	10800083 	ldbu	r2,2(r2)
 4011118:	10803fcc 	andi	r2,r2,255
 401111c:	10bfffc4 	addi	r2,r2,-1
 4011120:	1884703a 	and	r2,r3,r2
 4011124:	1004c03a 	cmpne	r2,r2,zero
 4011128:	1000241e 	bne	r2,zero,40111bc <dir_next+0x164>
            clst = get_fat(dj->fs, dj->clust);           /* Get next cluster */
 401112c:	e0bffd17 	ldw	r2,-12(fp)
 4011130:	11000017 	ldw	r4,0(r2)
 4011134:	e0bffd17 	ldw	r2,-12(fp)
 4011138:	11400317 	ldw	r5,12(r2)
 401113c:	4010ba80 	call	4010ba8 <get_fat>
 4011140:	e0bffc15 	stw	r2,-16(fp)
            if (clst <= 1) return FR_INT_ERR;
 4011144:	e0bffc17 	ldw	r2,-16(fp)
 4011148:	108000a8 	cmpgeui	r2,r2,2
 401114c:	1000031e 	bne	r2,zero,401115c <dir_next+0x104>
 4011150:	00800084 	movi	r2,2
 4011154:	e0bfff15 	stw	r2,-4(fp)
 4011158:	00002506 	br	40111f0 <dir_next+0x198>
            if (clst == 0xFFFFFFFF) return FR_DISK_ERR;
 401115c:	e0bffc17 	ldw	r2,-16(fp)
 4011160:	10bfffd8 	cmpnei	r2,r2,-1
 4011164:	1000031e 	bne	r2,zero,4011174 <dir_next+0x11c>
 4011168:	00800044 	movi	r2,1
 401116c:	e0bfff15 	stw	r2,-4(fp)
 4011170:	00001f06 	br	40111f0 <dir_next+0x198>
            if (clst >= dj->fs->n_fatent) {              /* When it reached end of dynamic table */
 4011174:	e0bffd17 	ldw	r2,-12(fp)
 4011178:	10800017 	ldw	r2,0(r2)
 401117c:	10c00317 	ldw	r3,12(r2)
 4011180:	e0bffc17 	ldw	r2,-16(fp)
 4011184:	10c00336 	bltu	r2,r3,4011194 <dir_next+0x13c>
                  if (move_window(dj->fs, 0)) return FR_DISK_ERR;
                  dj->fs->winsect++;
               }
               dj->fs->winsect -= c;                  /* Rewind window address */
#else
               return FR_NO_FILE;         /* Report EOT */
 4011188:	00800104 	movi	r2,4
 401118c:	e0bfff15 	stw	r2,-4(fp)
 4011190:	00001706 	br	40111f0 <dir_next+0x198>
#endif
            }
            dj->clust = clst;          /* Initialize data for new cluster */
 4011194:	e0fffd17 	ldw	r3,-12(fp)
 4011198:	e0bffc17 	ldw	r2,-16(fp)
 401119c:	18800315 	stw	r2,12(r3)
            dj->sect = clust2sect(dj->fs, clst);
 40111a0:	e0bffd17 	ldw	r2,-12(fp)
 40111a4:	11000017 	ldw	r4,0(r2)
 40111a8:	e17ffc17 	ldw	r5,-16(fp)
 40111ac:	4010b280 	call	4010b28 <clust2sect>
 40111b0:	1007883a 	mov	r3,r2
 40111b4:	e0bffd17 	ldw	r2,-12(fp)
 40111b8:	10c00415 	stw	r3,16(r2)
         }
      }
   }

   dj->index = i;
 40111bc:	e0fffd17 	ldw	r3,-12(fp)
 40111c0:	e0bffb0b 	ldhu	r2,-20(fp)
 40111c4:	1880018d 	sth	r2,6(r3)
   dj->dir = dj->fs->win + (i % (SS(dj->fs) / SZ_DIR)) * SZ_DIR;
 40111c8:	e0bffd17 	ldw	r2,-12(fp)
 40111cc:	10800017 	ldw	r2,0(r2)
 40111d0:	10c00904 	addi	r3,r2,36
 40111d4:	e0bffb0b 	ldhu	r2,-20(fp)
 40111d8:	108003cc 	andi	r2,r2,15
 40111dc:	1004917a 	slli	r2,r2,5
 40111e0:	1887883a 	add	r3,r3,r2
 40111e4:	e0bffd17 	ldw	r2,-12(fp)
 40111e8:	10c00515 	stw	r3,20(r2)

   return FR_OK;
 40111ec:	e03fff15 	stw	zero,-4(fp)
 40111f0:	e0bfff17 	ldw	r2,-4(fp)
}
 40111f4:	e037883a 	mov	sp,fp
 40111f8:	dfc00117 	ldw	ra,4(sp)
 40111fc:	df000017 	ldw	fp,0(sp)
 4011200:	dec00204 	addi	sp,sp,8
 4011204:	f800283a 	ret

04011208 <dir_find>:

static
FRESULT dir_find (
   DIR *dj        /* Pointer to the directory object linked to the file name */
)
{
 4011208:	defff904 	addi	sp,sp,-28
 401120c:	dfc00615 	stw	ra,24(sp)
 4011210:	df000515 	stw	fp,20(sp)
 4011214:	df000504 	addi	fp,sp,20
 4011218:	e13ffe15 	stw	r4,-8(fp)
   FFS_U8 c, *dir;
#if _USE_LFN
   FFS_U8 a, ord, sum;
#endif

   res = dir_sdi(dj, 0);         /* Rewind directory object */
 401121c:	e13ffe17 	ldw	r4,-8(fp)
 4011220:	000b883a 	mov	r5,zero
 4011224:	4010e5c0 	call	4010e5c <dir_sdi>
 4011228:	e0bffd15 	stw	r2,-12(fp)
   if (res != FR_OK) return res;
 401122c:	e0bffd17 	ldw	r2,-12(fp)
 4011230:	1005003a 	cmpeq	r2,r2,zero
 4011234:	1000031e 	bne	r2,zero,4011244 <dir_find+0x3c>
 4011238:	e0bffd17 	ldw	r2,-12(fp)
 401123c:	e0bfff15 	stw	r2,-4(fp)
 4011240:	00002c06 	br	40112f4 <dir_find+0xec>

#if _USE_LFN
   ord = sum = 0xFF;
#endif
   do {
      res = move_window(dj->fs, dj->sect);
 4011244:	e0bffe17 	ldw	r2,-8(fp)
 4011248:	11000017 	ldw	r4,0(r2)
 401124c:	e0bffe17 	ldw	r2,-8(fp)
 4011250:	11400417 	ldw	r5,16(r2)
 4011254:	4010a900 	call	4010a90 <move_window>
 4011258:	e0bffd15 	stw	r2,-12(fp)
      if (res != FR_OK) break;
 401125c:	e0bffd17 	ldw	r2,-12(fp)
 4011260:	1004c03a 	cmpne	r2,r2,zero
 4011264:	1000211e 	bne	r2,zero,40112ec <dir_find+0xe4>
      dir = dj->dir;             /* Ptr to the directory entry of current index */
 4011268:	e0bffe17 	ldw	r2,-8(fp)
 401126c:	10800517 	ldw	r2,20(r2)
 4011270:	e0bffb15 	stw	r2,-20(fp)
      c = dir[DIR_Name];
 4011274:	e0bffb17 	ldw	r2,-20(fp)
 4011278:	10800003 	ldbu	r2,0(r2)
 401127c:	e0bffc05 	stb	r2,-16(fp)
      if (c == 0) { res = FR_NO_FILE; break; }  /* Reached to end of table */
 4011280:	e0bffc03 	ldbu	r2,-16(fp)
 4011284:	1004c03a 	cmpne	r2,r2,zero
 4011288:	1000031e 	bne	r2,zero,4011298 <dir_find+0x90>
 401128c:	00800104 	movi	r2,4
 4011290:	e0bffd15 	stw	r2,-12(fp)
 4011294:	00001506 	br	40112ec <dir_find+0xe4>
            ord = 0xFF; dj->lfn_idx = 0xFFFF;   /* Reset LFN sequence */
            if (!(dj->fn[NS] & NS_LOSS) && !mem_cmp(dir, dj->fn, 11)) break;  /* SFN matched? */
         }
      }
#else    /* Non LFN configuration */
      if (!(dir[DIR_Attr] & AM_VOL) && !mem_cmp(dir, dj->fn, 11)) /* Is it a valid entry? */
 4011298:	e0bffb17 	ldw	r2,-20(fp)
 401129c:	108002c4 	addi	r2,r2,11
 40112a0:	10800003 	ldbu	r2,0(r2)
 40112a4:	10803fcc 	andi	r2,r2,255
 40112a8:	1080020c 	andi	r2,r2,8
 40112ac:	1004c03a 	cmpne	r2,r2,zero
 40112b0:	1000071e 	bne	r2,zero,40112d0 <dir_find+0xc8>
 40112b4:	e0bffe17 	ldw	r2,-8(fp)
 40112b8:	11400617 	ldw	r5,24(r2)
 40112bc:	e13ffb17 	ldw	r4,-20(fp)
 40112c0:	018002c4 	movi	r6,11
 40112c4:	40109680 	call	4010968 <mem_cmp>
 40112c8:	1005003a 	cmpeq	r2,r2,zero
 40112cc:	1000071e 	bne	r2,zero,40112ec <dir_find+0xe4>
         break;
#endif
      res = dir_next(dj, 0);     /* Next entry */
 40112d0:	e13ffe17 	ldw	r4,-8(fp)
 40112d4:	000b883a 	mov	r5,zero
 40112d8:	40110580 	call	4011058 <dir_next>
 40112dc:	e0bffd15 	stw	r2,-12(fp)
   } while (res == FR_OK);
 40112e0:	e0bffd17 	ldw	r2,-12(fp)
 40112e4:	1005003a 	cmpeq	r2,r2,zero
 40112e8:	103fd61e 	bne	r2,zero,4011244 <dir_find+0x3c>

   return res;
 40112ec:	e0bffd17 	ldw	r2,-12(fp)
 40112f0:	e0bfff15 	stw	r2,-4(fp)
 40112f4:	e0bfff17 	ldw	r2,-4(fp)
}
 40112f8:	e037883a 	mov	sp,fp
 40112fc:	dfc00117 	ldw	ra,4(sp)
 4011300:	df000017 	ldw	fp,0(sp)
 4011304:	dec00204 	addi	sp,sp,8
 4011308:	f800283a 	ret

0401130c <dir_read>:
#if _FS_MINIMIZE <= 1
static
FRESULT dir_read (
   DIR *dj        /* Pointer to the directory object that pointing the entry to be read */
)
{
 401130c:	defffa04 	addi	sp,sp,-24
 4011310:	dfc00515 	stw	ra,20(sp)
 4011314:	df000415 	stw	fp,16(sp)
 4011318:	df000404 	addi	fp,sp,16
 401131c:	e13fff15 	stw	r4,-4(fp)
   FFS_U8 c, *dir;
#if _USE_LFN
   FFS_U8 a, ord = 0xFF, sum = 0xFF;
#endif

   res = FR_NO_FILE;
 4011320:	00800104 	movi	r2,4
 4011324:	e0bffe15 	stw	r2,-8(fp)
   while (dj->sect) {
 4011328:	00002906 	br	40113d0 <dir_read+0xc4>
      res = move_window(dj->fs, dj->sect);
 401132c:	e0bfff17 	ldw	r2,-4(fp)
 4011330:	11000017 	ldw	r4,0(r2)
 4011334:	e0bfff17 	ldw	r2,-4(fp)
 4011338:	11400417 	ldw	r5,16(r2)
 401133c:	4010a900 	call	4010a90 <move_window>
 4011340:	e0bffe15 	stw	r2,-8(fp)
      if (res != FR_OK) break;
 4011344:	e0bffe17 	ldw	r2,-8(fp)
 4011348:	1004c03a 	cmpne	r2,r2,zero
 401134c:	1000241e 	bne	r2,zero,40113e0 <dir_read+0xd4>
      dir = dj->dir;             /* Ptr to the directory entry of current index */
 4011350:	e0bfff17 	ldw	r2,-4(fp)
 4011354:	10800517 	ldw	r2,20(r2)
 4011358:	e0bffc15 	stw	r2,-16(fp)
      c = dir[DIR_Name];
 401135c:	e0bffc17 	ldw	r2,-16(fp)
 4011360:	10800003 	ldbu	r2,0(r2)
 4011364:	e0bffd05 	stb	r2,-12(fp)
      if (c == 0) { res = FR_NO_FILE; break; }  /* Reached to end of table */
 4011368:	e0bffd03 	ldbu	r2,-12(fp)
 401136c:	1004c03a 	cmpne	r2,r2,zero
 4011370:	1000031e 	bne	r2,zero,4011380 <dir_read+0x74>
 4011374:	00800104 	movi	r2,4
 4011378:	e0bffe15 	stw	r2,-8(fp)
 401137c:	00001806 	br	40113e0 <dir_read+0xd4>
               dj->lfn_idx = 0xFFFF;      /* It has no LFN. */
            break;
         }
      }
#else    /* Non LFN configuration */
      if (c != DDE && (_FS_RPATH || c != '.') && !(dir[DIR_Attr] & AM_VOL))   /* Is it a valid entry? */
 4011380:	e0bffd03 	ldbu	r2,-12(fp)
 4011384:	10803960 	cmpeqi	r2,r2,229
 4011388:	10000a1e 	bne	r2,zero,40113b4 <dir_read+0xa8>
 401138c:	e0bffd03 	ldbu	r2,-12(fp)
 4011390:	10800ba0 	cmpeqi	r2,r2,46
 4011394:	1000071e 	bne	r2,zero,40113b4 <dir_read+0xa8>
 4011398:	e0bffc17 	ldw	r2,-16(fp)
 401139c:	108002c4 	addi	r2,r2,11
 40113a0:	10800003 	ldbu	r2,0(r2)
 40113a4:	10803fcc 	andi	r2,r2,255
 40113a8:	1080020c 	andi	r2,r2,8
 40113ac:	1005003a 	cmpeq	r2,r2,zero
 40113b0:	10000b1e 	bne	r2,zero,40113e0 <dir_read+0xd4>
         break;
#endif
      res = dir_next(dj, 0);           /* Next entry */
 40113b4:	e13fff17 	ldw	r4,-4(fp)
 40113b8:	000b883a 	mov	r5,zero
 40113bc:	40110580 	call	4011058 <dir_next>
 40113c0:	e0bffe15 	stw	r2,-8(fp)
      if (res != FR_OK) break;
 40113c4:	e0bffe17 	ldw	r2,-8(fp)
 40113c8:	1004c03a 	cmpne	r2,r2,zero
 40113cc:	1000041e 	bne	r2,zero,40113e0 <dir_read+0xd4>
#if _USE_LFN
   FFS_U8 a, ord = 0xFF, sum = 0xFF;
#endif

   res = FR_NO_FILE;
   while (dj->sect) {
 40113d0:	e0bfff17 	ldw	r2,-4(fp)
 40113d4:	10800417 	ldw	r2,16(r2)
 40113d8:	1004c03a 	cmpne	r2,r2,zero
 40113dc:	103fd31e 	bne	r2,zero,401132c <dir_read+0x20>
#endif
      res = dir_next(dj, 0);           /* Next entry */
      if (res != FR_OK) break;
   }

   if (res != FR_OK) dj->sect = 0;
 40113e0:	e0bffe17 	ldw	r2,-8(fp)
 40113e4:	1005003a 	cmpeq	r2,r2,zero
 40113e8:	1000021e 	bne	r2,zero,40113f4 <dir_read+0xe8>
 40113ec:	e0bfff17 	ldw	r2,-4(fp)
 40113f0:	10000415 	stw	zero,16(r2)

   return res;
 40113f4:	e0bffe17 	ldw	r2,-8(fp)
}
 40113f8:	e037883a 	mov	sp,fp
 40113fc:	dfc00117 	ldw	ra,4(sp)
 4011400:	df000017 	ldw	fp,0(sp)
 4011404:	dec00204 	addi	sp,sp,8
 4011408:	f800283a 	ret

0401140c <create_name>:
static
FRESULT create_name (
   DIR *dj,       /* Pointer to the directory object */
   const TCHAR **path   /* Pointer to pointer to the segment in the path string */
)
{
 401140c:	defff404 	addi	sp,sp,-48
 4011410:	dfc00b15 	stw	ra,44(sp)
 4011414:	df000a15 	stw	fp,40(sp)
 4011418:	df000a04 	addi	fp,sp,40
 401141c:	e13ffc15 	stw	r4,-16(fp)
 4011420:	e17ffd15 	stw	r5,-12(fp)
   FFS_U8 b, c, d, *sfn;
   FFS_U32 ni, si, i;
   const char *p;

   /* Create file name in directory form */
   for (p = *path; *p == '/' || *p == '\\'; p++) ; /* Strip duplicated separator */
 4011424:	e0bffd17 	ldw	r2,-12(fp)
 4011428:	10800017 	ldw	r2,0(r2)
 401142c:	e0bff615 	stw	r2,-40(fp)
 4011430:	00000306 	br	4011440 <create_name+0x34>
 4011434:	e0bff617 	ldw	r2,-40(fp)
 4011438:	10800044 	addi	r2,r2,1
 401143c:	e0bff615 	stw	r2,-40(fp)
 4011440:	e0bff617 	ldw	r2,-40(fp)
 4011444:	10800003 	ldbu	r2,0(r2)
 4011448:	10803fcc 	andi	r2,r2,255
 401144c:	1080201c 	xori	r2,r2,128
 4011450:	10bfe004 	addi	r2,r2,-128
 4011454:	10800be0 	cmpeqi	r2,r2,47
 4011458:	103ff61e 	bne	r2,zero,4011434 <create_name+0x28>
 401145c:	e0bff617 	ldw	r2,-40(fp)
 4011460:	10800003 	ldbu	r2,0(r2)
 4011464:	10803fcc 	andi	r2,r2,255
 4011468:	1080201c 	xori	r2,r2,128
 401146c:	10bfe004 	addi	r2,r2,-128
 4011470:	10801720 	cmpeqi	r2,r2,92
 4011474:	103fef1e 	bne	r2,zero,4011434 <create_name+0x28>
   sfn = dj->fn;
 4011478:	e0bffc17 	ldw	r2,-16(fp)
 401147c:	10800617 	ldw	r2,24(r2)
 4011480:	e0bffa15 	stw	r2,-24(fp)
   mem_set(sfn, ' ', 11);
 4011484:	e13ffa17 	ldw	r4,-24(fp)
 4011488:	01400804 	movi	r5,32
 401148c:	018002c4 	movi	r6,11
 4011490:	40109000 	call	4010900 <mem_set>
   si = i = b = 0; ni = 8;
 4011494:	e03ffb85 	stb	zero,-18(fp)
 4011498:	e03ff715 	stw	zero,-36(fp)
 401149c:	e0bff717 	ldw	r2,-36(fp)
 40114a0:	e0bff815 	stw	r2,-32(fp)
 40114a4:	00800204 	movi	r2,8
 40114a8:	e0bff915 	stw	r2,-28(fp)
 40114ac:	00000006 	br	40114b0 <create_name+0xa4>
      sfn[NS] = (c <= ' ') ? NS_LAST | NS_DOT : NS_DOT;  /* Set last segment flag if end of path */
      return FR_OK;
   }
#endif
   for (;;) {
      c = (FFS_U8)p[si++];
 40114b0:	e0fff817 	ldw	r3,-32(fp)
 40114b4:	e0bff617 	ldw	r2,-40(fp)
 40114b8:	1885883a 	add	r2,r3,r2
 40114bc:	10800003 	ldbu	r2,0(r2)
 40114c0:	e0bffb45 	stb	r2,-19(fp)
 40114c4:	e0bff817 	ldw	r2,-32(fp)
 40114c8:	10800044 	addi	r2,r2,1
 40114cc:	e0bff815 	stw	r2,-32(fp)
      if (c <= ' ' || c == '/' || c == '\\') break;   /* Break on end of segment */
 40114d0:	e0bffb43 	ldbu	r2,-19(fp)
 40114d4:	10800870 	cmpltui	r2,r2,33
 40114d8:	1000561e 	bne	r2,zero,4011634 <create_name+0x228>
 40114dc:	e0bffb43 	ldbu	r2,-19(fp)
 40114e0:	10800be0 	cmpeqi	r2,r2,47
 40114e4:	1000531e 	bne	r2,zero,4011634 <create_name+0x228>
 40114e8:	e0bffb43 	ldbu	r2,-19(fp)
 40114ec:	10801720 	cmpeqi	r2,r2,92
 40114f0:	1000501e 	bne	r2,zero,4011634 <create_name+0x228>
      if (c == '.' || i >= ni) {
 40114f4:	e0bffb43 	ldbu	r2,-19(fp)
 40114f8:	10800ba0 	cmpeqi	r2,r2,46
 40114fc:	1000031e 	bne	r2,zero,401150c <create_name+0x100>
 4011500:	e0fff717 	ldw	r3,-36(fp)
 4011504:	e0bff917 	ldw	r2,-28(fp)
 4011508:	18801236 	bltu	r3,r2,4011554 <create_name+0x148>
         if (ni != 8 || c != '.') return FR_INVALID_NAME;
 401150c:	e0bff917 	ldw	r2,-28(fp)
 4011510:	10800218 	cmpnei	r2,r2,8
 4011514:	1000031e 	bne	r2,zero,4011524 <create_name+0x118>
 4011518:	e0bffb43 	ldbu	r2,-19(fp)
 401151c:	10800ba0 	cmpeqi	r2,r2,46
 4011520:	1000031e 	bne	r2,zero,4011530 <create_name+0x124>
 4011524:	00800184 	movi	r2,6
 4011528:	e0bfff15 	stw	r2,-4(fp)
 401152c:	00007706 	br	401170c <create_name+0x300>
         i = 8; ni = 11;
 4011530:	00800204 	movi	r2,8
 4011534:	e0bff715 	stw	r2,-36(fp)
 4011538:	008002c4 	movi	r2,11
 401153c:	e0bff915 	stw	r2,-28(fp)
         b <<= 2; continue;
 4011540:	e0bffb83 	ldbu	r2,-18(fp)
 4011544:	1085883a 	add	r2,r2,r2
 4011548:	1085883a 	add	r2,r2,r2
 401154c:	e0bffb85 	stb	r2,-18(fp)
 4011550:	003fd706 	br	40114b0 <create_name+0xa4>
      }
      if (c >= 0x80) {           /* Extended char? */
 4011554:	e0bffb43 	ldbu	r2,-19(fp)
 4011558:	10803fcc 	andi	r2,r2,255
 401155c:	1080201c 	xori	r2,r2,128
 4011560:	10bfe004 	addi	r2,r2,-128
 4011564:	1004403a 	cmpge	r2,r2,zero
 4011568:	10000a1e 	bne	r2,zero,4011594 <create_name+0x188>
         b |= 3;                 /* Eliminate NT flag */
 401156c:	e0bffb83 	ldbu	r2,-18(fp)
 4011570:	108000d4 	ori	r2,r2,3
 4011574:	e0bffb85 	stb	r2,-18(fp)
#ifdef _EXCVT
         c = excvt[c-0x80];         /* Upper conversion (SBCS) */
 4011578:	e0bffb43 	ldbu	r2,-19(fp)
 401157c:	10ffe004 	addi	r3,r2,-128
 4011580:	008100b4 	movhi	r2,1026
 4011584:	10a0a504 	addi	r2,r2,-32108
 4011588:	10c5883a 	add	r2,r2,r3
 401158c:	10800003 	ldbu	r2,0(r2)
 4011590:	e0bffb45 	stb	r2,-19(fp)
         if (!IsDBCS2(d) || i >= ni - 1)  /* Reject invalid DBC */
            return FR_INVALID_NAME;
         sfn[i++] = c;
         sfn[i++] = d;
      } else {                /* Single byte code */
         if (chk_chr("\"*+,:;<=>\?[]|\x7F", c)) /* Reject illegal chrs for SFN */
 4011594:	e17ffb43 	ldbu	r5,-19(fp)
 4011598:	010100b4 	movhi	r4,1026
 401159c:	2120c504 	addi	r4,r4,-31980
 40115a0:	4010a100 	call	4010a10 <chk_chr>
 40115a4:	1005003a 	cmpeq	r2,r2,zero
 40115a8:	1000031e 	bne	r2,zero,40115b8 <create_name+0x1ac>
            return FR_INVALID_NAME;
 40115ac:	00800184 	movi	r2,6
 40115b0:	e0bfff15 	stw	r2,-4(fp)
 40115b4:	00005506 	br	401170c <create_name+0x300>
         if (IsUpper(c)) {       /* ASCII large capital? */
 40115b8:	e0bffb43 	ldbu	r2,-19(fp)
 40115bc:	10801070 	cmpltui	r2,r2,65
 40115c0:	1000071e 	bne	r2,zero,40115e0 <create_name+0x1d4>
 40115c4:	e0bffb43 	ldbu	r2,-19(fp)
 40115c8:	108016e8 	cmpgeui	r2,r2,91
 40115cc:	1000041e 	bne	r2,zero,40115e0 <create_name+0x1d4>
            b |= 2;
 40115d0:	e0bffb83 	ldbu	r2,-18(fp)
 40115d4:	10800094 	ori	r2,r2,2
 40115d8:	e0bffb85 	stb	r2,-18(fp)
         sfn[i++] = c;
         sfn[i++] = d;
      } else {                /* Single byte code */
         if (chk_chr("\"*+,:;<=>\?[]|\x7F", c)) /* Reject illegal chrs for SFN */
            return FR_INVALID_NAME;
         if (IsUpper(c)) {       /* ASCII large capital? */
 40115dc:	00000c06 	br	4011610 <create_name+0x204>
            b |= 2;
         } else {
            if (IsLower(c)) {    /* ASCII small capital? */
 40115e0:	e0bffb43 	ldbu	r2,-19(fp)
 40115e4:	10801870 	cmpltui	r2,r2,97
 40115e8:	1000091e 	bne	r2,zero,4011610 <create_name+0x204>
 40115ec:	e0bffb43 	ldbu	r2,-19(fp)
 40115f0:	10801ee8 	cmpgeui	r2,r2,123
 40115f4:	1000061e 	bne	r2,zero,4011610 <create_name+0x204>
               b |= 1; c -= 0x20;
 40115f8:	e0bffb83 	ldbu	r2,-18(fp)
 40115fc:	10800054 	ori	r2,r2,1
 4011600:	e0bffb85 	stb	r2,-18(fp)
 4011604:	e0bffb43 	ldbu	r2,-19(fp)
 4011608:	10bff804 	addi	r2,r2,-32
 401160c:	e0bffb45 	stb	r2,-19(fp)
            }
         }
         sfn[i++] = c;
 4011610:	e0fff717 	ldw	r3,-36(fp)
 4011614:	e0bffa17 	ldw	r2,-24(fp)
 4011618:	1887883a 	add	r3,r3,r2
 401161c:	e0bffb43 	ldbu	r2,-19(fp)
 4011620:	18800005 	stb	r2,0(r3)
 4011624:	e0bff717 	ldw	r2,-36(fp)
 4011628:	10800044 	addi	r2,r2,1
 401162c:	e0bff715 	stw	r2,-36(fp)
      }
   }
 4011630:	003f9f06 	br	40114b0 <create_name+0xa4>
   *path = &p[si];                  /* Return pointer to the next segment */
 4011634:	e0fff817 	ldw	r3,-32(fp)
 4011638:	e0bff617 	ldw	r2,-40(fp)
 401163c:	1887883a 	add	r3,r3,r2
 4011640:	e0bffd17 	ldw	r2,-12(fp)
 4011644:	10c00015 	stw	r3,0(r2)
   c = (c <= ' ') ? NS_LAST : 0;    /* Set last segment flag if end of path */
 4011648:	e0bffb43 	ldbu	r2,-19(fp)
 401164c:	10800868 	cmpgeui	r2,r2,33
 4011650:	1000031e 	bne	r2,zero,4011660 <create_name+0x254>
 4011654:	00800104 	movi	r2,4
 4011658:	e0bffe05 	stb	r2,-8(fp)
 401165c:	00000106 	br	4011664 <create_name+0x258>
 4011660:	e03ffe05 	stb	zero,-8(fp)
 4011664:	e0bffe03 	ldbu	r2,-8(fp)
 4011668:	e0bffb45 	stb	r2,-19(fp)

   if (!i) return FR_INVALID_NAME;     /* Reject nul string */
 401166c:	e0bff717 	ldw	r2,-36(fp)
 4011670:	1004c03a 	cmpne	r2,r2,zero
 4011674:	1000031e 	bne	r2,zero,4011684 <create_name+0x278>
 4011678:	00800184 	movi	r2,6
 401167c:	e0bfff15 	stw	r2,-4(fp)
 4011680:	00002206 	br	401170c <create_name+0x300>
   if (sfn[0] == DDE) sfn[0] = NDDE;   /* When first char collides with DDE, replace it with 0x05 */
 4011684:	e0bffa17 	ldw	r2,-24(fp)
 4011688:	10800003 	ldbu	r2,0(r2)
 401168c:	10803fcc 	andi	r2,r2,255
 4011690:	10803958 	cmpnei	r2,r2,229
 4011694:	1000031e 	bne	r2,zero,40116a4 <create_name+0x298>
 4011698:	e0fffa17 	ldw	r3,-24(fp)
 401169c:	00800144 	movi	r2,5
 40116a0:	18800005 	stb	r2,0(r3)

   if (ni == 8) b <<= 2;
 40116a4:	e0bff917 	ldw	r2,-28(fp)
 40116a8:	10800218 	cmpnei	r2,r2,8
 40116ac:	1000041e 	bne	r2,zero,40116c0 <create_name+0x2b4>
 40116b0:	e0bffb83 	ldbu	r2,-18(fp)
 40116b4:	1085883a 	add	r2,r2,r2
 40116b8:	1085883a 	add	r2,r2,r2
 40116bc:	e0bffb85 	stb	r2,-18(fp)
   if ((b & 0x03) == 0x01) c |= NS_EXT;   /* NT flag (Name extension has only small capital) */
 40116c0:	e0bffb83 	ldbu	r2,-18(fp)
 40116c4:	108000cc 	andi	r2,r2,3
 40116c8:	10800058 	cmpnei	r2,r2,1
 40116cc:	1000031e 	bne	r2,zero,40116dc <create_name+0x2d0>
 40116d0:	e0bffb43 	ldbu	r2,-19(fp)
 40116d4:	10800414 	ori	r2,r2,16
 40116d8:	e0bffb45 	stb	r2,-19(fp)
   if ((b & 0x0C) == 0x04) c |= NS_BODY;  /* NT flag (Name body has only small capital) */
 40116dc:	e0bffb83 	ldbu	r2,-18(fp)
 40116e0:	1080030c 	andi	r2,r2,12
 40116e4:	10800118 	cmpnei	r2,r2,4
 40116e8:	1000031e 	bne	r2,zero,40116f8 <create_name+0x2ec>
 40116ec:	e0bffb43 	ldbu	r2,-19(fp)
 40116f0:	10800214 	ori	r2,r2,8
 40116f4:	e0bffb45 	stb	r2,-19(fp)

   sfn[NS] = c;      /* Store NT flag, File name is created */
 40116f8:	e0bffa17 	ldw	r2,-24(fp)
 40116fc:	10c002c4 	addi	r3,r2,11
 4011700:	e0bffb43 	ldbu	r2,-19(fp)
 4011704:	18800005 	stb	r2,0(r3)

   return FR_OK;
 4011708:	e03fff15 	stw	zero,-4(fp)
 401170c:	e0bfff17 	ldw	r2,-4(fp)
#endif
}
 4011710:	e037883a 	mov	sp,fp
 4011714:	dfc00117 	ldw	ra,4(sp)
 4011718:	df000017 	ldw	fp,0(sp)
 401171c:	dec00204 	addi	sp,sp,8
 4011720:	f800283a 	ret

04011724 <get_fileinfo>:
static
void get_fileinfo (     /* No return code */
   DIR *dj,       /* Pointer to the directory object */
   FILINFO *fno      /* Pointer to the file information to be filled */
)
{
 4011724:	defff804 	addi	sp,sp,-32
 4011728:	df000715 	stw	fp,28(sp)
 401172c:	df000704 	addi	fp,sp,28
 4011730:	e13ffe15 	stw	r4,-8(fp)
 4011734:	e17fff15 	stw	r5,-4(fp)
   FFS_U32 i;
   FFS_U8 nt, *dir;
   TCHAR *p, c;


   p = fno->fname;
 4011738:	e0bfff17 	ldw	r2,-4(fp)
 401173c:	10800244 	addi	r2,r2,9
 4011740:	e0bffa15 	stw	r2,-24(fp)
   if (dj->sect) {
 4011744:	e0bffe17 	ldw	r2,-8(fp)
 4011748:	10800417 	ldw	r2,16(r2)
 401174c:	1005003a 	cmpeq	r2,r2,zero
 4011750:	10007e1e 	bne	r2,zero,401194c <get_fileinfo+0x228>
      dir = dj->dir;
 4011754:	e0bffe17 	ldw	r2,-8(fp)
 4011758:	10800517 	ldw	r2,20(r2)
 401175c:	e0bffb15 	stw	r2,-20(fp)
      nt = dir[DIR_NTres];    /* NT flag */
 4011760:	e0bffb17 	ldw	r2,-20(fp)
 4011764:	10800304 	addi	r2,r2,12
 4011768:	10800003 	ldbu	r2,0(r2)
 401176c:	e0bffc05 	stb	r2,-16(fp)
      for (i = 0; i < 8; i++) {  /* Copy name body */
 4011770:	e03ffd15 	stw	zero,-12(fp)
 4011774:	00001606 	br	40117d0 <get_fileinfo+0xac>
         c = dir[i];
 4011778:	e0fffd17 	ldw	r3,-12(fp)
 401177c:	e0bffb17 	ldw	r2,-20(fp)
 4011780:	1885883a 	add	r2,r3,r2
 4011784:	10800003 	ldbu	r2,0(r2)
 4011788:	e0bff905 	stb	r2,-28(fp)
         if (c == ' ') break;
 401178c:	e0bff907 	ldb	r2,-28(fp)
 4011790:	10800820 	cmpeqi	r2,r2,32
 4011794:	1000111e 	bne	r2,zero,40117dc <get_fileinfo+0xb8>
         if (c == NDDE) c = (TCHAR)DDE;
 4011798:	e0bff907 	ldb	r2,-28(fp)
 401179c:	10800158 	cmpnei	r2,r2,5
 40117a0:	1000021e 	bne	r2,zero,40117ac <get_fileinfo+0x88>
 40117a4:	00bff944 	movi	r2,-27
 40117a8:	e0bff905 	stb	r2,-28(fp)
         if (IsDBCS1(c) && i < 7 && IsDBCS2(dir[i+1]))
            c = (c << 8) | dir[++i];
         c = ff_convert(c, 1);
         if (!c) c = '?';
#endif
         *p++ = c;
 40117ac:	e0fffa17 	ldw	r3,-24(fp)
 40117b0:	e0bff903 	ldbu	r2,-28(fp)
 40117b4:	18800005 	stb	r2,0(r3)
 40117b8:	e0bffa17 	ldw	r2,-24(fp)
 40117bc:	10800044 	addi	r2,r2,1
 40117c0:	e0bffa15 	stw	r2,-24(fp)

   p = fno->fname;
   if (dj->sect) {
      dir = dj->dir;
      nt = dir[DIR_NTres];    /* NT flag */
      for (i = 0; i < 8; i++) {  /* Copy name body */
 40117c4:	e0bffd17 	ldw	r2,-12(fp)
 40117c8:	10800044 	addi	r2,r2,1
 40117cc:	e0bffd15 	stw	r2,-12(fp)
 40117d0:	e0bffd17 	ldw	r2,-12(fp)
 40117d4:	10800230 	cmpltui	r2,r2,8
 40117d8:	103fe71e 	bne	r2,zero,4011778 <get_fileinfo+0x54>
         c = ff_convert(c, 1);
         if (!c) c = '?';
#endif
         *p++ = c;
      }
      if (dir[8] != ' ') {    /* Copy name extension */
 40117dc:	e0bffb17 	ldw	r2,-20(fp)
 40117e0:	10800204 	addi	r2,r2,8
 40117e4:	10800003 	ldbu	r2,0(r2)
 40117e8:	10803fcc 	andi	r2,r2,255
 40117ec:	10800820 	cmpeqi	r2,r2,32
 40117f0:	10001d1e 	bne	r2,zero,4011868 <get_fileinfo+0x144>
         *p++ = '.';
 40117f4:	e0fffa17 	ldw	r3,-24(fp)
 40117f8:	00800b84 	movi	r2,46
 40117fc:	18800005 	stb	r2,0(r3)
 4011800:	e0bffa17 	ldw	r2,-24(fp)
 4011804:	10800044 	addi	r2,r2,1
 4011808:	e0bffa15 	stw	r2,-24(fp)
         for (i = 8; i < 11; i++) {
 401180c:	00800204 	movi	r2,8
 4011810:	e0bffd15 	stw	r2,-12(fp)
 4011814:	00001106 	br	401185c <get_fileinfo+0x138>
            c = dir[i];
 4011818:	e0fffd17 	ldw	r3,-12(fp)
 401181c:	e0bffb17 	ldw	r2,-20(fp)
 4011820:	1885883a 	add	r2,r3,r2
 4011824:	10800003 	ldbu	r2,0(r2)
 4011828:	e0bff905 	stb	r2,-28(fp)
            if (c == ' ') break;
 401182c:	e0bff907 	ldb	r2,-28(fp)
 4011830:	10800820 	cmpeqi	r2,r2,32
 4011834:	10000c1e 	bne	r2,zero,4011868 <get_fileinfo+0x144>
            if (IsDBCS1(c) && i < 10 && IsDBCS2(dir[i+1]))
               c = (c << 8) | dir[++i];
            c = ff_convert(c, 1);
            if (!c) c = '?';
#endif
            *p++ = c;
 4011838:	e0fffa17 	ldw	r3,-24(fp)
 401183c:	e0bff903 	ldbu	r2,-28(fp)
 4011840:	18800005 	stb	r2,0(r3)
 4011844:	e0bffa17 	ldw	r2,-24(fp)
 4011848:	10800044 	addi	r2,r2,1
 401184c:	e0bffa15 	stw	r2,-24(fp)
#endif
         *p++ = c;
      }
      if (dir[8] != ' ') {    /* Copy name extension */
         *p++ = '.';
         for (i = 8; i < 11; i++) {
 4011850:	e0bffd17 	ldw	r2,-12(fp)
 4011854:	10800044 	addi	r2,r2,1
 4011858:	e0bffd15 	stw	r2,-12(fp)
 401185c:	e0bffd17 	ldw	r2,-12(fp)
 4011860:	108002f0 	cmpltui	r2,r2,11
 4011864:	103fec1e 	bne	r2,zero,4011818 <get_fileinfo+0xf4>
            if (!c) c = '?';
#endif
            *p++ = c;
         }
      }
      fno->fattrib = dir[DIR_Attr];          /* Attribute */
 4011868:	e0bffb17 	ldw	r2,-20(fp)
 401186c:	108002c4 	addi	r2,r2,11
 4011870:	10c00003 	ldbu	r3,0(r2)
 4011874:	e0bfff17 	ldw	r2,-4(fp)
 4011878:	10c00205 	stb	r3,8(r2)
      fno->fsize = LD_DWORD(dir+DIR_FileSize);  /* Size */
 401187c:	e0bffb17 	ldw	r2,-20(fp)
 4011880:	108007c4 	addi	r2,r2,31
 4011884:	10800003 	ldbu	r2,0(r2)
 4011888:	10803fcc 	andi	r2,r2,255
 401188c:	1006963a 	slli	r3,r2,24
 4011890:	e0bffb17 	ldw	r2,-20(fp)
 4011894:	10800784 	addi	r2,r2,30
 4011898:	10800003 	ldbu	r2,0(r2)
 401189c:	10803fcc 	andi	r2,r2,255
 40118a0:	1004943a 	slli	r2,r2,16
 40118a4:	1886b03a 	or	r3,r3,r2
 40118a8:	e0bffb17 	ldw	r2,-20(fp)
 40118ac:	10800744 	addi	r2,r2,29
 40118b0:	10800003 	ldbu	r2,0(r2)
 40118b4:	10803fcc 	andi	r2,r2,255
 40118b8:	1004923a 	slli	r2,r2,8
 40118bc:	1886b03a 	or	r3,r3,r2
 40118c0:	e0bffb17 	ldw	r2,-20(fp)
 40118c4:	10800704 	addi	r2,r2,28
 40118c8:	10800003 	ldbu	r2,0(r2)
 40118cc:	10803fcc 	andi	r2,r2,255
 40118d0:	1886b03a 	or	r3,r3,r2
 40118d4:	e0bfff17 	ldw	r2,-4(fp)
 40118d8:	10c00015 	stw	r3,0(r2)
      fno->fdate = LD_WORD(dir+DIR_WrtDate);    /* Date */
 40118dc:	e0bffb17 	ldw	r2,-20(fp)
 40118e0:	10800644 	addi	r2,r2,25
 40118e4:	10800003 	ldbu	r2,0(r2)
 40118e8:	10803fcc 	andi	r2,r2,255
 40118ec:	1004923a 	slli	r2,r2,8
 40118f0:	1007883a 	mov	r3,r2
 40118f4:	e0bffb17 	ldw	r2,-20(fp)
 40118f8:	10800604 	addi	r2,r2,24
 40118fc:	10800003 	ldbu	r2,0(r2)
 4011900:	10803fcc 	andi	r2,r2,255
 4011904:	1884b03a 	or	r2,r3,r2
 4011908:	1007883a 	mov	r3,r2
 401190c:	e0bfff17 	ldw	r2,-4(fp)
 4011910:	10c0010d 	sth	r3,4(r2)
      fno->ftime = LD_WORD(dir+DIR_WrtTime);    /* Time */
 4011914:	e0bffb17 	ldw	r2,-20(fp)
 4011918:	108005c4 	addi	r2,r2,23
 401191c:	10800003 	ldbu	r2,0(r2)
 4011920:	10803fcc 	andi	r2,r2,255
 4011924:	1004923a 	slli	r2,r2,8
 4011928:	1007883a 	mov	r3,r2
 401192c:	e0bffb17 	ldw	r2,-20(fp)
 4011930:	10800584 	addi	r2,r2,22
 4011934:	10800003 	ldbu	r2,0(r2)
 4011938:	10803fcc 	andi	r2,r2,255
 401193c:	1884b03a 	or	r2,r3,r2
 4011940:	1007883a 	mov	r3,r2
 4011944:	e0bfff17 	ldw	r2,-4(fp)
 4011948:	10c0018d 	sth	r3,6(r2)
   }
   *p = 0;     /* Terminate SFN str by a \0 */
 401194c:	e0bffa17 	ldw	r2,-24(fp)
 4011950:	10000005 	stb	zero,0(r2)
         }
      }
      tp[i] = 0;  /* Terminate the LFN str by a \0 */
   }
#endif
}
 4011954:	e037883a 	mov	sp,fp
 4011958:	df000017 	ldw	fp,0(sp)
 401195c:	dec00104 	addi	sp,sp,4
 4011960:	f800283a 	ret

04011964 <follow_path>:
static
FRESULT follow_path (   /* FR_OK(0): successful, !=0: error code */
   DIR *dj,       /* Directory object to return last directory and found object */
   const TCHAR *path /* Full-path string to find a file or directory */
)
{
 4011964:	defff904 	addi	sp,sp,-28
 4011968:	dfc00615 	stw	ra,24(sp)
 401196c:	df000515 	stw	fp,20(sp)
 4011970:	df000504 	addi	fp,sp,20
 4011974:	e13ffe15 	stw	r4,-8(fp)
 4011978:	e17fff15 	stw	r5,-4(fp)
      path++;  dj->sclust = 0;      /* Strip it and start from the root dir */
   } else {                   /* No heading separator */
      dj->sclust = dj->fs->cdir; /* Start from the current dir */
   }
#else
   if (*path == '/' || *path == '\\')  /* Strip heading separator if exist */
 401197c:	e0bfff17 	ldw	r2,-4(fp)
 4011980:	10800003 	ldbu	r2,0(r2)
 4011984:	10803fcc 	andi	r2,r2,255
 4011988:	1080201c 	xori	r2,r2,128
 401198c:	10bfe004 	addi	r2,r2,-128
 4011990:	10800be0 	cmpeqi	r2,r2,47
 4011994:	1000071e 	bne	r2,zero,40119b4 <follow_path+0x50>
 4011998:	e0bfff17 	ldw	r2,-4(fp)
 401199c:	10800003 	ldbu	r2,0(r2)
 40119a0:	10803fcc 	andi	r2,r2,255
 40119a4:	1080201c 	xori	r2,r2,128
 40119a8:	10bfe004 	addi	r2,r2,-128
 40119ac:	10801718 	cmpnei	r2,r2,92
 40119b0:	1000031e 	bne	r2,zero,40119c0 <follow_path+0x5c>
      path++;
 40119b4:	e0bfff17 	ldw	r2,-4(fp)
 40119b8:	10800044 	addi	r2,r2,1
 40119bc:	e0bfff15 	stw	r2,-4(fp)
   dj->sclust = 0;                  /* Start from the root dir */
 40119c0:	e0bffe17 	ldw	r2,-8(fp)
 40119c4:	10000215 	stw	zero,8(r2)
#endif

   if ((FFS_U32)*path < ' ') {         /* Nul path means the start directory itself */
 40119c8:	e0bfff17 	ldw	r2,-4(fp)
 40119cc:	10800003 	ldbu	r2,0(r2)
 40119d0:	10803fcc 	andi	r2,r2,255
 40119d4:	10800828 	cmpgeui	r2,r2,32
 40119d8:	1000071e 	bne	r2,zero,40119f8 <follow_path+0x94>
      res = dir_sdi(dj, 0);
 40119dc:	e13ffe17 	ldw	r4,-8(fp)
 40119e0:	000b883a 	mov	r5,zero
 40119e4:	4010e5c0 	call	4010e5c <dir_sdi>
 40119e8:	e0bffd15 	stw	r2,-12(fp)
      dj->dir = 0;
 40119ec:	e0bffe17 	ldw	r2,-8(fp)
 40119f0:	10000515 	stw	zero,20(r2)
 40119f4:	00004a06 	br	4011b20 <follow_path+0x1bc>

   } else {                   /* Follow path */
      for (;;) {
         res = create_name(dj, &path); /* Get a segment */
 40119f8:	e17fff04 	addi	r5,fp,-4
 40119fc:	e13ffe17 	ldw	r4,-8(fp)
 4011a00:	401140c0 	call	401140c <create_name>
 4011a04:	e0bffd15 	stw	r2,-12(fp)
         if (res != FR_OK) break;
 4011a08:	e0bffd17 	ldw	r2,-12(fp)
 4011a0c:	1004c03a 	cmpne	r2,r2,zero
 4011a10:	1000431e 	bne	r2,zero,4011b20 <follow_path+0x1bc>
         res = dir_find(dj);           /* Find it */
 4011a14:	e13ffe17 	ldw	r4,-8(fp)
 4011a18:	40112080 	call	4011208 <dir_find>
 4011a1c:	e0bffd15 	stw	r2,-12(fp)
         ns = *(dj->fn+NS);
 4011a20:	e0bffe17 	ldw	r2,-8(fp)
 4011a24:	10800617 	ldw	r2,24(r2)
 4011a28:	108002c4 	addi	r2,r2,11
 4011a2c:	10800003 	ldbu	r2,0(r2)
 4011a30:	e0bffb05 	stb	r2,-20(fp)
         if (res != FR_OK) {           /* Failed to find the object */
 4011a34:	e0bffd17 	ldw	r2,-12(fp)
 4011a38:	1005003a 	cmpeq	r2,r2,zero
 4011a3c:	10000a1e 	bne	r2,zero,4011a68 <follow_path+0x104>
            if (res != FR_NO_FILE) break; /* Abort if any hard error occured */
 4011a40:	e0bffd17 	ldw	r2,-12(fp)
 4011a44:	10800118 	cmpnei	r2,r2,4
 4011a48:	1000351e 	bne	r2,zero,4011b20 <follow_path+0x1bc>
            if (_FS_RPATH && (ns & NS_DOT)) {   /* If dot entry is not exit */
               dj->sclust = 0; dj->dir = 0;  /* It is the root dir */
               res = FR_OK;
               if (!(ns & NS_LAST)) continue;
            } else {                   /* Could not find the object */
               if (!(ns & NS_LAST)) res = FR_NO_PATH;
 4011a4c:	e0bffb03 	ldbu	r2,-20(fp)
 4011a50:	1080010c 	andi	r2,r2,4
 4011a54:	1004c03a 	cmpne	r2,r2,zero
 4011a58:	1000311e 	bne	r2,zero,4011b20 <follow_path+0x1bc>
 4011a5c:	00800144 	movi	r2,5
 4011a60:	e0bffd15 	stw	r2,-12(fp)
            }
            break;
 4011a64:	00002e06 	br	4011b20 <follow_path+0x1bc>
         }
         if (ns & NS_LAST) break;         /* Last segment match. Function completed. */
 4011a68:	e0bffb03 	ldbu	r2,-20(fp)
 4011a6c:	1080010c 	andi	r2,r2,4
 4011a70:	1004c03a 	cmpne	r2,r2,zero
 4011a74:	10002a1e 	bne	r2,zero,4011b20 <follow_path+0x1bc>
         dir = dj->dir;                /* There is next segment. Follow the sub directory */
 4011a78:	e0bffe17 	ldw	r2,-8(fp)
 4011a7c:	10800517 	ldw	r2,20(r2)
 4011a80:	e0bffc15 	stw	r2,-16(fp)
         if (!(dir[DIR_Attr] & AM_DIR)) { /* Cannot follow because it is a file */
 4011a84:	e0bffc17 	ldw	r2,-16(fp)
 4011a88:	108002c4 	addi	r2,r2,11
 4011a8c:	10800003 	ldbu	r2,0(r2)
 4011a90:	10803fcc 	andi	r2,r2,255
 4011a94:	1080040c 	andi	r2,r2,16
 4011a98:	1004c03a 	cmpne	r2,r2,zero
 4011a9c:	1000031e 	bne	r2,zero,4011aac <follow_path+0x148>
            res = FR_NO_PATH; break;
 4011aa0:	00800144 	movi	r2,5
 4011aa4:	e0bffd15 	stw	r2,-12(fp)
 4011aa8:	00001d06 	br	4011b20 <follow_path+0x1bc>
         }
         dj->sclust = LD_CLUST(dir);
 4011aac:	e0bffc17 	ldw	r2,-16(fp)
 4011ab0:	10800544 	addi	r2,r2,21
 4011ab4:	10800003 	ldbu	r2,0(r2)
 4011ab8:	10803fcc 	andi	r2,r2,255
 4011abc:	1004923a 	slli	r2,r2,8
 4011ac0:	1007883a 	mov	r3,r2
 4011ac4:	e0bffc17 	ldw	r2,-16(fp)
 4011ac8:	10800504 	addi	r2,r2,20
 4011acc:	10800003 	ldbu	r2,0(r2)
 4011ad0:	10803fcc 	andi	r2,r2,255
 4011ad4:	1884b03a 	or	r2,r3,r2
 4011ad8:	10bfffcc 	andi	r2,r2,65535
 4011adc:	1008943a 	slli	r4,r2,16
 4011ae0:	e0bffc17 	ldw	r2,-16(fp)
 4011ae4:	108006c4 	addi	r2,r2,27
 4011ae8:	10800003 	ldbu	r2,0(r2)
 4011aec:	10803fcc 	andi	r2,r2,255
 4011af0:	1004923a 	slli	r2,r2,8
 4011af4:	1007883a 	mov	r3,r2
 4011af8:	e0bffc17 	ldw	r2,-16(fp)
 4011afc:	10800684 	addi	r2,r2,26
 4011b00:	10800003 	ldbu	r2,0(r2)
 4011b04:	10803fcc 	andi	r2,r2,255
 4011b08:	1884b03a 	or	r2,r3,r2
 4011b0c:	10bfffcc 	andi	r2,r2,65535
 4011b10:	2086b03a 	or	r3,r4,r2
 4011b14:	e0bffe17 	ldw	r2,-8(fp)
 4011b18:	10c00215 	stw	r3,8(r2)
      }
 4011b1c:	003fb606 	br	40119f8 <follow_path+0x94>
   }

   return res;
 4011b20:	e0bffd17 	ldw	r2,-12(fp)
}
 4011b24:	e037883a 	mov	sp,fp
 4011b28:	dfc00117 	ldw	ra,4(sp)
 4011b2c:	df000017 	ldw	fp,0(sp)
 4011b30:	dec00204 	addi	sp,sp,8
 4011b34:	f800283a 	ret

04011b38 <check_fs>:
static
FFS_U8 check_fs (   /* 0:FAT-VBR, 1:Valid BR but not FAT, 2:Not a BR, 3:Disk error */
   FATFS *fs,  /* File system object */
   FFS_U32 sect  /* Sector# (lba) to check if it is an FAT boot record or not */
)
{
 4011b38:	defffb04 	addi	sp,sp,-20
 4011b3c:	dfc00415 	stw	ra,16(sp)
 4011b40:	df000315 	stw	fp,12(sp)
 4011b44:	df000304 	addi	fp,sp,12
 4011b48:	e13ffd15 	stw	r4,-12(fp)
 4011b4c:	e17ffe15 	stw	r5,-8(fp)
   if (disk_read(fs->drv, fs->win, sect, 1) != RES_OK)   /* Load boot record */
 4011b50:	e0bffd17 	ldw	r2,-12(fp)
 4011b54:	10800043 	ldbu	r2,1(r2)
 4011b58:	11003fcc 	andi	r4,r2,255
 4011b5c:	e0bffd17 	ldw	r2,-12(fp)
 4011b60:	11400904 	addi	r5,r2,36
 4011b64:	e1bffe17 	ldw	r6,-8(fp)
 4011b68:	01c00044 	movi	r7,1
 4011b6c:	4013fcc0 	call	4013fcc <ffs_DiskIORead>
 4011b70:	1005003a 	cmpeq	r2,r2,zero
 4011b74:	1000031e 	bne	r2,zero,4011b84 <check_fs+0x4c>
      return 3;
 4011b78:	008000c4 	movi	r2,3
 4011b7c:	e0bfff15 	stw	r2,-4(fp)
 4011b80:	00005b06 	br	4011cf0 <check_fs+0x1b8>
   if (LD_WORD(&fs->win[BS_55AA]) != 0xAA55)    /* Check record signature (always placed at offset 510 even if the sector size is >512) */
 4011b84:	e0bffd17 	ldw	r2,-12(fp)
 4011b88:	10800904 	addi	r2,r2,36
 4011b8c:	10807fc4 	addi	r2,r2,511
 4011b90:	10800003 	ldbu	r2,0(r2)
 4011b94:	10803fcc 	andi	r2,r2,255
 4011b98:	1004923a 	slli	r2,r2,8
 4011b9c:	1007883a 	mov	r3,r2
 4011ba0:	e0bffd17 	ldw	r2,-12(fp)
 4011ba4:	10800904 	addi	r2,r2,36
 4011ba8:	10807f84 	addi	r2,r2,510
 4011bac:	10800003 	ldbu	r2,0(r2)
 4011bb0:	10803fcc 	andi	r2,r2,255
 4011bb4:	1884b03a 	or	r2,r3,r2
 4011bb8:	10bfffcc 	andi	r2,r2,65535
 4011bbc:	10a0001c 	xori	r2,r2,32768
 4011bc0:	10a00004 	addi	r2,r2,-32768
 4011bc4:	10aa9560 	cmpeqi	r2,r2,-21931
 4011bc8:	1000031e 	bne	r2,zero,4011bd8 <check_fs+0xa0>
      return 2;
 4011bcc:	00800084 	movi	r2,2
 4011bd0:	e0bfff15 	stw	r2,-4(fp)
 4011bd4:	00004606 	br	4011cf0 <check_fs+0x1b8>

   if ((LD_DWORD(&fs->win[BS_FilSysType]) & 0xFFFFFF) == 0x544146)   /* Check "FAT" string */
 4011bd8:	e0bffd17 	ldw	r2,-12(fp)
 4011bdc:	10800904 	addi	r2,r2,36
 4011be0:	10800e44 	addi	r2,r2,57
 4011be4:	10800003 	ldbu	r2,0(r2)
 4011be8:	10803fcc 	andi	r2,r2,255
 4011bec:	1006963a 	slli	r3,r2,24
 4011bf0:	e0bffd17 	ldw	r2,-12(fp)
 4011bf4:	10800904 	addi	r2,r2,36
 4011bf8:	10800e04 	addi	r2,r2,56
 4011bfc:	10800003 	ldbu	r2,0(r2)
 4011c00:	10803fcc 	andi	r2,r2,255
 4011c04:	1004943a 	slli	r2,r2,16
 4011c08:	1886b03a 	or	r3,r3,r2
 4011c0c:	e0bffd17 	ldw	r2,-12(fp)
 4011c10:	10800904 	addi	r2,r2,36
 4011c14:	10800dc4 	addi	r2,r2,55
 4011c18:	10800003 	ldbu	r2,0(r2)
 4011c1c:	10803fcc 	andi	r2,r2,255
 4011c20:	1004923a 	slli	r2,r2,8
 4011c24:	1886b03a 	or	r3,r3,r2
 4011c28:	e0bffd17 	ldw	r2,-12(fp)
 4011c2c:	10800904 	addi	r2,r2,36
 4011c30:	10800d84 	addi	r2,r2,54
 4011c34:	10800003 	ldbu	r2,0(r2)
 4011c38:	10803fcc 	andi	r2,r2,255
 4011c3c:	1886b03a 	or	r3,r3,r2
 4011c40:	00804034 	movhi	r2,256
 4011c44:	10bfffc4 	addi	r2,r2,-1
 4011c48:	1886703a 	and	r3,r3,r2
 4011c4c:	00801534 	movhi	r2,84
 4011c50:	10905184 	addi	r2,r2,16710
 4011c54:	1880021e 	bne	r3,r2,4011c60 <check_fs+0x128>
      return 0;
 4011c58:	e03fff15 	stw	zero,-4(fp)
 4011c5c:	00002406 	br	4011cf0 <check_fs+0x1b8>
   if ((LD_DWORD(&fs->win[BS_FilSysType32]) & 0xFFFFFF) == 0x544146)
 4011c60:	e0bffd17 	ldw	r2,-12(fp)
 4011c64:	10800904 	addi	r2,r2,36
 4011c68:	10801544 	addi	r2,r2,85
 4011c6c:	10800003 	ldbu	r2,0(r2)
 4011c70:	10803fcc 	andi	r2,r2,255
 4011c74:	1006963a 	slli	r3,r2,24
 4011c78:	e0bffd17 	ldw	r2,-12(fp)
 4011c7c:	10800904 	addi	r2,r2,36
 4011c80:	10801504 	addi	r2,r2,84
 4011c84:	10800003 	ldbu	r2,0(r2)
 4011c88:	10803fcc 	andi	r2,r2,255
 4011c8c:	1004943a 	slli	r2,r2,16
 4011c90:	1886b03a 	or	r3,r3,r2
 4011c94:	e0bffd17 	ldw	r2,-12(fp)
 4011c98:	10800904 	addi	r2,r2,36
 4011c9c:	108014c4 	addi	r2,r2,83
 4011ca0:	10800003 	ldbu	r2,0(r2)
 4011ca4:	10803fcc 	andi	r2,r2,255
 4011ca8:	1004923a 	slli	r2,r2,8
 4011cac:	1886b03a 	or	r3,r3,r2
 4011cb0:	e0bffd17 	ldw	r2,-12(fp)
 4011cb4:	10800904 	addi	r2,r2,36
 4011cb8:	10801484 	addi	r2,r2,82
 4011cbc:	10800003 	ldbu	r2,0(r2)
 4011cc0:	10803fcc 	andi	r2,r2,255
 4011cc4:	1886b03a 	or	r3,r3,r2
 4011cc8:	00804034 	movhi	r2,256
 4011ccc:	10bfffc4 	addi	r2,r2,-1
 4011cd0:	1886703a 	and	r3,r3,r2
 4011cd4:	00801534 	movhi	r2,84
 4011cd8:	10905184 	addi	r2,r2,16710
 4011cdc:	1880021e 	bne	r3,r2,4011ce8 <check_fs+0x1b0>
      return 0;
 4011ce0:	e03fff15 	stw	zero,-4(fp)
 4011ce4:	00000206 	br	4011cf0 <check_fs+0x1b8>

   return 1;
 4011ce8:	00800044 	movi	r2,1
 4011cec:	e0bfff15 	stw	r2,-4(fp)
 4011cf0:	e0bfff17 	ldw	r2,-4(fp)
}
 4011cf4:	e037883a 	mov	sp,fp
 4011cf8:	dfc00117 	ldw	ra,4(sp)
 4011cfc:	df000017 	ldw	fp,0(sp)
 4011d00:	dec00204 	addi	sp,sp,8
 4011d04:	f800283a 	ret

04011d08 <chk_mounted>:
FRESULT chk_mounted (   /* FR_OK(0): successful, !=0: any error occurred */
   const TCHAR **path,  /* Pointer to pointer to the path name (drive number) */
   FATFS **rfs,      /* Pointer to pointer to the found file system object */
   FFS_U8 chk_wp       /* !=0: Check media write protection for write access */
)
{
 4011d08:	deffec04 	addi	sp,sp,-80
 4011d0c:	dfc01315 	stw	ra,76(sp)
 4011d10:	df001215 	stw	fp,72(sp)
 4011d14:	df001204 	addi	fp,sp,72
 4011d18:	e13ffb15 	stw	r4,-20(fp)
 4011d1c:	e17ffc15 	stw	r5,-16(fp)
 4011d20:	e1bffd05 	stb	r6,-12(fp)
   FFS_U8 fmt, b, pi, *tbl;
   FFS_U32 vol;
   DSTATUS stat;
   FFS_U32 bsect, fasize, tsect, sysect, nclst, szbfat;
   FFS_U16 nrsv;
   const TCHAR *p = *path;
 4011d24:	e0bffb17 	ldw	r2,-20(fp)
 4011d28:	10800017 	ldw	r2,0(r2)
 4011d2c:	e0bfef15 	stw	r2,-68(fp)
   FATFS *fs;

   /* Get logical drive number from the path name */
   vol = p[0] - '0';             /* Is there a drive number? */
 4011d30:	e0bfef17 	ldw	r2,-68(fp)
 4011d34:	10800003 	ldbu	r2,0(r2)
 4011d38:	10803fcc 	andi	r2,r2,255
 4011d3c:	1080201c 	xori	r2,r2,128
 4011d40:	10bfe004 	addi	r2,r2,-128
 4011d44:	10bff404 	addi	r2,r2,-48
 4011d48:	e0bff815 	stw	r2,-32(fp)
   if (vol <= 9 && p[1] == ':') {      /* Found a drive number, get and strip it */
 4011d4c:	e0bff817 	ldw	r2,-32(fp)
 4011d50:	108002a8 	cmpgeui	r2,r2,10
 4011d54:	10000f1e 	bne	r2,zero,4011d94 <chk_mounted+0x8c>
 4011d58:	e0bfef17 	ldw	r2,-68(fp)
 4011d5c:	10800044 	addi	r2,r2,1
 4011d60:	10800003 	ldbu	r2,0(r2)
 4011d64:	10803fcc 	andi	r2,r2,255
 4011d68:	1080201c 	xori	r2,r2,128
 4011d6c:	10bfe004 	addi	r2,r2,-128
 4011d70:	10800e98 	cmpnei	r2,r2,58
 4011d74:	1000071e 	bne	r2,zero,4011d94 <chk_mounted+0x8c>
      p += 2; *path = p;            /* Return pointer to the path name */
 4011d78:	e0bfef17 	ldw	r2,-68(fp)
 4011d7c:	10800084 	addi	r2,r2,2
 4011d80:	e0bfef15 	stw	r2,-68(fp)
 4011d84:	e0fffb17 	ldw	r3,-20(fp)
 4011d88:	e0bfef17 	ldw	r2,-68(fp)
 4011d8c:	18800015 	stw	r2,0(r3)
   const TCHAR *p = *path;
   FATFS *fs;

   /* Get logical drive number from the path name */
   vol = p[0] - '0';             /* Is there a drive number? */
   if (vol <= 9 && p[1] == ':') {      /* Found a drive number, get and strip it */
 4011d90:	00000106 	br	4011d98 <chk_mounted+0x90>
      p += 2; *path = p;            /* Return pointer to the path name */
   } else {                   /* No drive number is given */
#if _FS_RPATH
      vol = CurrVol;             /* Use current drive */
#else
      vol = 0;                /* Use drive 0 */
 4011d94:	e03ff815 	stw	zero,-32(fp)
#endif
   }

   /* Check if the file system object is valid or not */
   if (vol >= _VOLUMES)             /* Is the drive number valid? */
 4011d98:	e0bff817 	ldw	r2,-32(fp)
 4011d9c:	1005003a 	cmpeq	r2,r2,zero
 4011da0:	1000031e 	bne	r2,zero,4011db0 <chk_mounted+0xa8>
      return FR_INVALID_DRIVE;
 4011da4:	008002c4 	movi	r2,11
 4011da8:	e0bfff15 	stw	r2,-4(fp)
 4011dac:	0001d906 	br	4012514 <chk_mounted+0x80c>
   *rfs = fs = FatFs[vol];          /* Return pointer to the corresponding file system object */
 4011db0:	e0bff817 	ldw	r2,-32(fp)
 4011db4:	1085883a 	add	r2,r2,r2
 4011db8:	1087883a 	add	r3,r2,r2
 4011dbc:	d0a0da04 	addi	r2,gp,-31896
 4011dc0:	1885883a 	add	r2,r3,r2
 4011dc4:	10800017 	ldw	r2,0(r2)
 4011dc8:	e0bfee15 	stw	r2,-72(fp)
 4011dcc:	e0fffc17 	ldw	r3,-16(fp)
 4011dd0:	e0bfee17 	ldw	r2,-72(fp)
 4011dd4:	18800015 	stw	r2,0(r3)
   if (!fs) return FR_NOT_ENABLED;     /* Is the file system object available? */
 4011dd8:	e0bfee17 	ldw	r2,-72(fp)
 4011ddc:	1004c03a 	cmpne	r2,r2,zero
 4011de0:	1000031e 	bne	r2,zero,4011df0 <chk_mounted+0xe8>
 4011de4:	00800304 	movi	r2,12
 4011de8:	e0bfff15 	stw	r2,-4(fp)
 4011dec:	0001c906 	br	4012514 <chk_mounted+0x80c>

   ENTER_FF(fs);                 /* Lock file system */

   if (fs->fs_type) {               /* If the logical drive has been mounted */
 4011df0:	e0bfee17 	ldw	r2,-72(fp)
 4011df4:	10800003 	ldbu	r2,0(r2)
 4011df8:	10803fcc 	andi	r2,r2,255
 4011dfc:	1005003a 	cmpeq	r2,r2,zero
 4011e00:	10000b1e 	bne	r2,zero,4011e30 <chk_mounted+0x128>
      stat = disk_status(fs->drv);
 4011e04:	e0bfee17 	ldw	r2,-72(fp)
 4011e08:	10800043 	ldbu	r2,1(r2)
 4011e0c:	11003fcc 	andi	r4,r2,255
 4011e10:	4013fa40 	call	4013fa4 <ffs_DiskIOStatus>
 4011e14:	e0bff705 	stb	r2,-36(fp)
      if (!(stat & STA_NOINIT)) {      /* and the physical drive is kept initialized (has not been changed), */
 4011e18:	e0bff703 	ldbu	r2,-36(fp)
 4011e1c:	1080004c 	andi	r2,r2,1
 4011e20:	1004c03a 	cmpne	r2,r2,zero
 4011e24:	1000021e 	bne	r2,zero,4011e30 <chk_mounted+0x128>
         if (!_FS_READONLY && chk_wp && (stat & STA_PROTECT))  /* Check write protection if needed */
            return FR_WRITE_PROTECTED;
         return FR_OK;           /* The file system object is valid */
 4011e28:	e03fff15 	stw	zero,-4(fp)
 4011e2c:	0001b906 	br	4012514 <chk_mounted+0x80c>
   }

   /* The file system object is not valid. */
   /* Following code attempts to mount the volume. (analyze BPB and initialize the fs object) */

   fs->fs_type = 0;              /* Clear the file system object */
 4011e30:	e0bfee17 	ldw	r2,-72(fp)
 4011e34:	10000005 	stb	zero,0(r2)
   fs->drv = LD2PD(vol);            /* Bind the logical drive and a physical drive */
 4011e38:	e0bff817 	ldw	r2,-32(fp)
 4011e3c:	1007883a 	mov	r3,r2
 4011e40:	e0bfee17 	ldw	r2,-72(fp)
 4011e44:	10c00045 	stb	r3,1(r2)
   stat = disk_initialize(fs->drv); /* Initialize low level disk I/O layer */
 4011e48:	e0bfee17 	ldw	r2,-72(fp)
 4011e4c:	10800043 	ldbu	r2,1(r2)
 4011e50:	11003fcc 	andi	r4,r2,255
 4011e54:	4013d080 	call	4013d08 <ffs_DiskIOInitialize>
 4011e58:	e0bff705 	stb	r2,-36(fp)
   if (stat & STA_NOINIT)           /* Check if the initialization succeeded */
 4011e5c:	e0bff703 	ldbu	r2,-36(fp)
 4011e60:	1080004c 	andi	r2,r2,1
 4011e64:	10803fcc 	andi	r2,r2,255
 4011e68:	1005003a 	cmpeq	r2,r2,zero
 4011e6c:	1000031e 	bne	r2,zero,4011e7c <chk_mounted+0x174>
      return FR_NOT_READY;       /* Failed to initialize due to no media or hard error */
 4011e70:	008000c4 	movi	r2,3
 4011e74:	e0bfff15 	stw	r2,-4(fp)
 4011e78:	0001a606 	br	4012514 <chk_mounted+0x80c>
#if _MAX_SS != 512                  /* Get disk sector size (variable sector size cfg only) */
   if (disk_ioctl(fs->drv, GET_SECTOR_SIZE, &fs->ssize) != RES_OK)
      return FR_DISK_ERR;
#endif
   /* Search FAT partition on the drive. Supports only generic partitionings, FDISK and SFD. */
   fmt = check_fs(fs, bsect = 0);      /* Load sector 0 and check if it is an FAT-VBR (in SFD) */
 4011e7c:	e03ff615 	stw	zero,-40(fp)
 4011e80:	e13fee17 	ldw	r4,-72(fp)
 4011e84:	e17ff617 	ldw	r5,-40(fp)
 4011e88:	4011b380 	call	4011b38 <check_fs>
 4011e8c:	e0bffa85 	stb	r2,-22(fp)
   if (LD2PT(vol) && !fmt) fmt = 1; /* Force non-SFD if the volume is forced partition */
   if (fmt == 1) {                  /* Not an FAT-VBR, the physical drive can be partitioned */
 4011e90:	e0bffa83 	ldbu	r2,-22(fp)
 4011e94:	10800058 	cmpnei	r2,r2,1
 4011e98:	10002f1e 	bne	r2,zero,4011f58 <chk_mounted+0x250>
      /* Check the partition listed in the partition table */
      pi = LD2PT(vol);
 4011e9c:	e03ffa05 	stb	zero,-24(fp)
      if (pi) pi--;
 4011ea0:	e0bffa03 	ldbu	r2,-24(fp)
 4011ea4:	1005003a 	cmpeq	r2,r2,zero
 4011ea8:	1000031e 	bne	r2,zero,4011eb8 <chk_mounted+0x1b0>
 4011eac:	e0bffa03 	ldbu	r2,-24(fp)
 4011eb0:	10bfffc4 	addi	r2,r2,-1
 4011eb4:	e0bffa05 	stb	r2,-24(fp)
      tbl = &fs->win[MBR_Table + pi * SZ_PTE];/* Partition table */
 4011eb8:	e0bfee17 	ldw	r2,-72(fp)
 4011ebc:	10c00904 	addi	r3,r2,36
 4011ec0:	e0bffa03 	ldbu	r2,-24(fp)
 4011ec4:	1004913a 	slli	r2,r2,4
 4011ec8:	1885883a 	add	r2,r3,r2
 4011ecc:	10806f84 	addi	r2,r2,446
 4011ed0:	e0bff915 	stw	r2,-28(fp)
      if (tbl[4]) {                 /* Is the partition existing? */
 4011ed4:	e0bff917 	ldw	r2,-28(fp)
 4011ed8:	10800104 	addi	r2,r2,4
 4011edc:	10800003 	ldbu	r2,0(r2)
 4011ee0:	10803fcc 	andi	r2,r2,255
 4011ee4:	1005003a 	cmpeq	r2,r2,zero
 4011ee8:	10001b1e 	bne	r2,zero,4011f58 <chk_mounted+0x250>
         bsect = LD_DWORD(&tbl[8]);    /* Partition offset in LBA */
 4011eec:	e0bff917 	ldw	r2,-28(fp)
 4011ef0:	108002c4 	addi	r2,r2,11
 4011ef4:	10800003 	ldbu	r2,0(r2)
 4011ef8:	10803fcc 	andi	r2,r2,255
 4011efc:	1006963a 	slli	r3,r2,24
 4011f00:	e0bff917 	ldw	r2,-28(fp)
 4011f04:	10800284 	addi	r2,r2,10
 4011f08:	10800003 	ldbu	r2,0(r2)
 4011f0c:	10803fcc 	andi	r2,r2,255
 4011f10:	1004943a 	slli	r2,r2,16
 4011f14:	1886b03a 	or	r3,r3,r2
 4011f18:	e0bff917 	ldw	r2,-28(fp)
 4011f1c:	10800244 	addi	r2,r2,9
 4011f20:	10800003 	ldbu	r2,0(r2)
 4011f24:	10803fcc 	andi	r2,r2,255
 4011f28:	1004923a 	slli	r2,r2,8
 4011f2c:	1886b03a 	or	r3,r3,r2
 4011f30:	e0bff917 	ldw	r2,-28(fp)
 4011f34:	10800204 	addi	r2,r2,8
 4011f38:	10800003 	ldbu	r2,0(r2)
 4011f3c:	10803fcc 	andi	r2,r2,255
 4011f40:	1884b03a 	or	r2,r3,r2
 4011f44:	e0bff615 	stw	r2,-40(fp)
         fmt = check_fs(fs, bsect);    /* Check the partition */
 4011f48:	e13fee17 	ldw	r4,-72(fp)
 4011f4c:	e17ff617 	ldw	r5,-40(fp)
 4011f50:	4011b380 	call	4011b38 <check_fs>
 4011f54:	e0bffa85 	stb	r2,-22(fp)
      }
   }
   if (fmt == 3) return FR_DISK_ERR;
 4011f58:	e0bffa83 	ldbu	r2,-22(fp)
 4011f5c:	108000d8 	cmpnei	r2,r2,3
 4011f60:	1000031e 	bne	r2,zero,4011f70 <chk_mounted+0x268>
 4011f64:	00800044 	movi	r2,1
 4011f68:	e0bfff15 	stw	r2,-4(fp)
 4011f6c:	00016906 	br	4012514 <chk_mounted+0x80c>
   if (fmt) return FR_NO_FILESYSTEM;      /* No FAT volume is found */
 4011f70:	e0bffa83 	ldbu	r2,-22(fp)
 4011f74:	1005003a 	cmpeq	r2,r2,zero
 4011f78:	1000031e 	bne	r2,zero,4011f88 <chk_mounted+0x280>
 4011f7c:	00800344 	movi	r2,13
 4011f80:	e0bfff15 	stw	r2,-4(fp)
 4011f84:	00016306 	br	4012514 <chk_mounted+0x80c>

   /* An FAT volume is found. Following code initializes the file system object */

   if (LD_WORD(fs->win+BPB_BytsPerSec) != SS(fs))     /* (BPB_BytsPerSec must be equal to the physical sector size) */
 4011f88:	e0bfee17 	ldw	r2,-72(fp)
 4011f8c:	10800904 	addi	r2,r2,36
 4011f90:	10800304 	addi	r2,r2,12
 4011f94:	10800003 	ldbu	r2,0(r2)
 4011f98:	10803fcc 	andi	r2,r2,255
 4011f9c:	1004923a 	slli	r2,r2,8
 4011fa0:	1007883a 	mov	r3,r2
 4011fa4:	e0bfee17 	ldw	r2,-72(fp)
 4011fa8:	10800904 	addi	r2,r2,36
 4011fac:	108002c4 	addi	r2,r2,11
 4011fb0:	10800003 	ldbu	r2,0(r2)
 4011fb4:	10803fcc 	andi	r2,r2,255
 4011fb8:	1884b03a 	or	r2,r3,r2
 4011fbc:	10bfffcc 	andi	r2,r2,65535
 4011fc0:	10a0001c 	xori	r2,r2,32768
 4011fc4:	10a00004 	addi	r2,r2,-32768
 4011fc8:	10808020 	cmpeqi	r2,r2,512
 4011fcc:	1000031e 	bne	r2,zero,4011fdc <chk_mounted+0x2d4>
      return FR_NO_FILESYSTEM;
 4011fd0:	00800344 	movi	r2,13
 4011fd4:	e0bfff15 	stw	r2,-4(fp)
 4011fd8:	00014e06 	br	4012514 <chk_mounted+0x80c>

   fasize = LD_WORD(fs->win+BPB_FATSz16);          /* Number of sectors per FAT */
 4011fdc:	e0bfee17 	ldw	r2,-72(fp)
 4011fe0:	10800904 	addi	r2,r2,36
 4011fe4:	108005c4 	addi	r2,r2,23
 4011fe8:	10800003 	ldbu	r2,0(r2)
 4011fec:	10803fcc 	andi	r2,r2,255
 4011ff0:	1004923a 	slli	r2,r2,8
 4011ff4:	1007883a 	mov	r3,r2
 4011ff8:	e0bfee17 	ldw	r2,-72(fp)
 4011ffc:	10800904 	addi	r2,r2,36
 4012000:	10800584 	addi	r2,r2,22
 4012004:	10800003 	ldbu	r2,0(r2)
 4012008:	10803fcc 	andi	r2,r2,255
 401200c:	1884b03a 	or	r2,r3,r2
 4012010:	10bfffcc 	andi	r2,r2,65535
 4012014:	e0bff515 	stw	r2,-44(fp)
   if (!fasize) fasize = LD_DWORD(fs->win+BPB_FATSz32);
 4012018:	e0bff517 	ldw	r2,-44(fp)
 401201c:	1004c03a 	cmpne	r2,r2,zero
 4012020:	10001b1e 	bne	r2,zero,4012090 <chk_mounted+0x388>
 4012024:	e0bfee17 	ldw	r2,-72(fp)
 4012028:	10800904 	addi	r2,r2,36
 401202c:	108009c4 	addi	r2,r2,39
 4012030:	10800003 	ldbu	r2,0(r2)
 4012034:	10803fcc 	andi	r2,r2,255
 4012038:	1006963a 	slli	r3,r2,24
 401203c:	e0bfee17 	ldw	r2,-72(fp)
 4012040:	10800904 	addi	r2,r2,36
 4012044:	10800984 	addi	r2,r2,38
 4012048:	10800003 	ldbu	r2,0(r2)
 401204c:	10803fcc 	andi	r2,r2,255
 4012050:	1004943a 	slli	r2,r2,16
 4012054:	1886b03a 	or	r3,r3,r2
 4012058:	e0bfee17 	ldw	r2,-72(fp)
 401205c:	10800904 	addi	r2,r2,36
 4012060:	10800944 	addi	r2,r2,37
 4012064:	10800003 	ldbu	r2,0(r2)
 4012068:	10803fcc 	andi	r2,r2,255
 401206c:	1004923a 	slli	r2,r2,8
 4012070:	1886b03a 	or	r3,r3,r2
 4012074:	e0bfee17 	ldw	r2,-72(fp)
 4012078:	10800904 	addi	r2,r2,36
 401207c:	10800904 	addi	r2,r2,36
 4012080:	10800003 	ldbu	r2,0(r2)
 4012084:	10803fcc 	andi	r2,r2,255
 4012088:	1884b03a 	or	r2,r3,r2
 401208c:	e0bff515 	stw	r2,-44(fp)
   fs->fsize = fasize;
 4012090:	e0ffee17 	ldw	r3,-72(fp)
 4012094:	e0bff517 	ldw	r2,-44(fp)
 4012098:	18800415 	stw	r2,16(r3)

   fs->n_fats = b = fs->win[BPB_NumFATs];          /* Number of FAT copies */
 401209c:	e0bfee17 	ldw	r2,-72(fp)
 40120a0:	10800d03 	ldbu	r2,52(r2)
 40120a4:	e0bffa45 	stb	r2,-23(fp)
 40120a8:	e0ffee17 	ldw	r3,-72(fp)
 40120ac:	e0bffa43 	ldbu	r2,-23(fp)
 40120b0:	188000c5 	stb	r2,3(r3)
   if (b != 1 && b != 2) return FR_NO_FILESYSTEM;     /* (Must be 1 or 2) */
 40120b4:	e0bffa43 	ldbu	r2,-23(fp)
 40120b8:	10800060 	cmpeqi	r2,r2,1
 40120bc:	1000061e 	bne	r2,zero,40120d8 <chk_mounted+0x3d0>
 40120c0:	e0bffa43 	ldbu	r2,-23(fp)
 40120c4:	108000a0 	cmpeqi	r2,r2,2
 40120c8:	1000031e 	bne	r2,zero,40120d8 <chk_mounted+0x3d0>
 40120cc:	00800344 	movi	r2,13
 40120d0:	e0bfff15 	stw	r2,-4(fp)
 40120d4:	00010f06 	br	4012514 <chk_mounted+0x80c>
   fasize *= b;                              /* Number of sectors for FAT area */
 40120d8:	e17ffa43 	ldbu	r5,-23(fp)
 40120dc:	e13ff517 	ldw	r4,-44(fp)
 40120e0:	4014cf40 	call	4014cf4 <__mulsi3>
 40120e4:	e0bff515 	stw	r2,-44(fp)

   fs->csize = b = fs->win[BPB_SecPerClus];        /* Number of sectors per cluster */
 40120e8:	e0bfee17 	ldw	r2,-72(fp)
 40120ec:	10800c43 	ldbu	r2,49(r2)
 40120f0:	e0bffa45 	stb	r2,-23(fp)
 40120f4:	e0ffee17 	ldw	r3,-72(fp)
 40120f8:	e0bffa43 	ldbu	r2,-23(fp)
 40120fc:	18800085 	stb	r2,2(r3)
   if (!b || (b & (b - 1))) return FR_NO_FILESYSTEM;  /* (Must be power of 2) */
 4012100:	e0bffa43 	ldbu	r2,-23(fp)
 4012104:	1005003a 	cmpeq	r2,r2,zero
 4012108:	1000061e 	bne	r2,zero,4012124 <chk_mounted+0x41c>
 401210c:	e0fffa43 	ldbu	r3,-23(fp)
 4012110:	e0bffa43 	ldbu	r2,-23(fp)
 4012114:	10bfffc4 	addi	r2,r2,-1
 4012118:	1884703a 	and	r2,r3,r2
 401211c:	1005003a 	cmpeq	r2,r2,zero
 4012120:	1000031e 	bne	r2,zero,4012130 <chk_mounted+0x428>
 4012124:	00800344 	movi	r2,13
 4012128:	e0bfff15 	stw	r2,-4(fp)
 401212c:	0000f906 	br	4012514 <chk_mounted+0x80c>

   fs->n_rootdir = LD_WORD(fs->win+BPB_RootEntCnt);   /* Number of root directory entries */
 4012130:	e0bfee17 	ldw	r2,-72(fp)
 4012134:	10800904 	addi	r2,r2,36
 4012138:	10800484 	addi	r2,r2,18
 401213c:	10800003 	ldbu	r2,0(r2)
 4012140:	10803fcc 	andi	r2,r2,255
 4012144:	1004923a 	slli	r2,r2,8
 4012148:	1007883a 	mov	r3,r2
 401214c:	e0bfee17 	ldw	r2,-72(fp)
 4012150:	10800904 	addi	r2,r2,36
 4012154:	10800444 	addi	r2,r2,17
 4012158:	10800003 	ldbu	r2,0(r2)
 401215c:	10803fcc 	andi	r2,r2,255
 4012160:	1884b03a 	or	r2,r3,r2
 4012164:	1007883a 	mov	r3,r2
 4012168:	e0bfee17 	ldw	r2,-72(fp)
 401216c:	10c0020d 	sth	r3,8(r2)
   if (fs->n_rootdir % (SS(fs) / SZ_DIR)) return FR_NO_FILESYSTEM;   /* (BPB_RootEntCnt must be sector aligned) */
 4012170:	e0bfee17 	ldw	r2,-72(fp)
 4012174:	1080020b 	ldhu	r2,8(r2)
 4012178:	10bfffcc 	andi	r2,r2,65535
 401217c:	108003cc 	andi	r2,r2,15
 4012180:	1005003a 	cmpeq	r2,r2,zero
 4012184:	1000031e 	bne	r2,zero,4012194 <chk_mounted+0x48c>
 4012188:	00800344 	movi	r2,13
 401218c:	e0bfff15 	stw	r2,-4(fp)
 4012190:	0000e006 	br	4012514 <chk_mounted+0x80c>

   tsect = LD_WORD(fs->win+BPB_TotSec16);          /* Number of sectors on the volume */
 4012194:	e0bfee17 	ldw	r2,-72(fp)
 4012198:	10800904 	addi	r2,r2,36
 401219c:	10800504 	addi	r2,r2,20
 40121a0:	10800003 	ldbu	r2,0(r2)
 40121a4:	10803fcc 	andi	r2,r2,255
 40121a8:	1004923a 	slli	r2,r2,8
 40121ac:	1007883a 	mov	r3,r2
 40121b0:	e0bfee17 	ldw	r2,-72(fp)
 40121b4:	10800904 	addi	r2,r2,36
 40121b8:	108004c4 	addi	r2,r2,19
 40121bc:	10800003 	ldbu	r2,0(r2)
 40121c0:	10803fcc 	andi	r2,r2,255
 40121c4:	1884b03a 	or	r2,r3,r2
 40121c8:	10bfffcc 	andi	r2,r2,65535
 40121cc:	e0bff415 	stw	r2,-48(fp)
   if (!tsect) tsect = LD_DWORD(fs->win+BPB_TotSec32);
 40121d0:	e0bff417 	ldw	r2,-48(fp)
 40121d4:	1004c03a 	cmpne	r2,r2,zero
 40121d8:	10001b1e 	bne	r2,zero,4012248 <chk_mounted+0x540>
 40121dc:	e0bfee17 	ldw	r2,-72(fp)
 40121e0:	10800904 	addi	r2,r2,36
 40121e4:	108008c4 	addi	r2,r2,35
 40121e8:	10800003 	ldbu	r2,0(r2)
 40121ec:	10803fcc 	andi	r2,r2,255
 40121f0:	1006963a 	slli	r3,r2,24
 40121f4:	e0bfee17 	ldw	r2,-72(fp)
 40121f8:	10800904 	addi	r2,r2,36
 40121fc:	10800884 	addi	r2,r2,34
 4012200:	10800003 	ldbu	r2,0(r2)
 4012204:	10803fcc 	andi	r2,r2,255
 4012208:	1004943a 	slli	r2,r2,16
 401220c:	1886b03a 	or	r3,r3,r2
 4012210:	e0bfee17 	ldw	r2,-72(fp)
 4012214:	10800904 	addi	r2,r2,36
 4012218:	10800844 	addi	r2,r2,33
 401221c:	10800003 	ldbu	r2,0(r2)
 4012220:	10803fcc 	andi	r2,r2,255
 4012224:	1004923a 	slli	r2,r2,8
 4012228:	1886b03a 	or	r3,r3,r2
 401222c:	e0bfee17 	ldw	r2,-72(fp)
 4012230:	10800904 	addi	r2,r2,36
 4012234:	10800804 	addi	r2,r2,32
 4012238:	10800003 	ldbu	r2,0(r2)
 401223c:	10803fcc 	andi	r2,r2,255
 4012240:	1884b03a 	or	r2,r3,r2
 4012244:	e0bff415 	stw	r2,-48(fp)

   nrsv = LD_WORD(fs->win+BPB_RsvdSecCnt);            /* Number of reserved sectors */
 4012248:	e0bfee17 	ldw	r2,-72(fp)
 401224c:	10800904 	addi	r2,r2,36
 4012250:	108003c4 	addi	r2,r2,15
 4012254:	10800003 	ldbu	r2,0(r2)
 4012258:	10803fcc 	andi	r2,r2,255
 401225c:	1004923a 	slli	r2,r2,8
 4012260:	1007883a 	mov	r3,r2
 4012264:	e0bfee17 	ldw	r2,-72(fp)
 4012268:	10800904 	addi	r2,r2,36
 401226c:	10800384 	addi	r2,r2,14
 4012270:	10800003 	ldbu	r2,0(r2)
 4012274:	10803fcc 	andi	r2,r2,255
 4012278:	1884b03a 	or	r2,r3,r2
 401227c:	e0bff00d 	sth	r2,-64(fp)
   if (!nrsv) return FR_NO_FILESYSTEM;             /* (BPB_RsvdSecCnt must not be 0) */
 4012280:	e0bff00b 	ldhu	r2,-64(fp)
 4012284:	1004c03a 	cmpne	r2,r2,zero
 4012288:	1000031e 	bne	r2,zero,4012298 <chk_mounted+0x590>
 401228c:	00800344 	movi	r2,13
 4012290:	e0bfff15 	stw	r2,-4(fp)
 4012294:	00009f06 	br	4012514 <chk_mounted+0x80c>

   /* Determine the FAT sub type */
   sysect = nrsv + fasize + fs->n_rootdir / (SS(fs) / SZ_DIR); /* RSV+FAT+DIR */
 4012298:	e0fff00b 	ldhu	r3,-64(fp)
 401229c:	e0bff517 	ldw	r2,-44(fp)
 40122a0:	1887883a 	add	r3,r3,r2
 40122a4:	e0bfee17 	ldw	r2,-72(fp)
 40122a8:	1080020b 	ldhu	r2,8(r2)
 40122ac:	10bfffcc 	andi	r2,r2,65535
 40122b0:	1004d13a 	srli	r2,r2,4
 40122b4:	10bfffcc 	andi	r2,r2,65535
 40122b8:	1885883a 	add	r2,r3,r2
 40122bc:	e0bff315 	stw	r2,-52(fp)
   if (tsect < sysect) return FR_NO_FILESYSTEM;    /* (Invalid volume size) */
 40122c0:	e0fff417 	ldw	r3,-48(fp)
 40122c4:	e0bff317 	ldw	r2,-52(fp)
 40122c8:	1880032e 	bgeu	r3,r2,40122d8 <chk_mounted+0x5d0>
 40122cc:	00800344 	movi	r2,13
 40122d0:	e0bfff15 	stw	r2,-4(fp)
 40122d4:	00008f06 	br	4012514 <chk_mounted+0x80c>
   nclst = (tsect - sysect) / fs->csize;           /* Number of clusters */
 40122d8:	e0fff417 	ldw	r3,-48(fp)
 40122dc:	e0bff317 	ldw	r2,-52(fp)
 40122e0:	1889c83a 	sub	r4,r3,r2
 40122e4:	e0bfee17 	ldw	r2,-72(fp)
 40122e8:	10800083 	ldbu	r2,2(r2)
 40122ec:	11403fcc 	andi	r5,r2,255
 40122f0:	4014ce40 	call	4014ce4 <__udivsi3>
 40122f4:	e0bff215 	stw	r2,-56(fp)
   if (!nclst) return FR_NO_FILESYSTEM;            /* (Invalid volume size) */
 40122f8:	e0bff217 	ldw	r2,-56(fp)
 40122fc:	1004c03a 	cmpne	r2,r2,zero
 4012300:	1000031e 	bne	r2,zero,4012310 <chk_mounted+0x608>
 4012304:	00800344 	movi	r2,13
 4012308:	e0bfff15 	stw	r2,-4(fp)
 401230c:	00008106 	br	4012514 <chk_mounted+0x80c>
   fmt = FS_FAT12;
 4012310:	00800044 	movi	r2,1
 4012314:	e0bffa85 	stb	r2,-22(fp)
   if (nclst >= MIN_FAT16) fmt = FS_FAT16;
 4012318:	e0bff217 	ldw	r2,-56(fp)
 401231c:	1083fdb0 	cmpltui	r2,r2,4086
 4012320:	1000021e 	bne	r2,zero,401232c <chk_mounted+0x624>
 4012324:	00800084 	movi	r2,2
 4012328:	e0bffa85 	stb	r2,-22(fp)
   if (nclst >= MIN_FAT32) fmt = FS_FAT32;
 401232c:	e0fff217 	ldw	r3,-56(fp)
 4012330:	00bffd54 	movui	r2,65525
 4012334:	10c0022e 	bgeu	r2,r3,4012340 <chk_mounted+0x638>
 4012338:	008000c4 	movi	r2,3
 401233c:	e0bffa85 	stb	r2,-22(fp)

   /* Boundaries and Limits */
   fs->n_fatent = nclst + 2;                    /* Number of FAT entries */
 4012340:	e0bff217 	ldw	r2,-56(fp)
 4012344:	10c00084 	addi	r3,r2,2
 4012348:	e0bfee17 	ldw	r2,-72(fp)
 401234c:	10c00315 	stw	r3,12(r2)
   fs->database = bsect + sysect;                  /* Data start sector */
 4012350:	e0fff617 	ldw	r3,-40(fp)
 4012354:	e0bff317 	ldw	r2,-52(fp)
 4012358:	1887883a 	add	r3,r3,r2
 401235c:	e0bfee17 	ldw	r2,-72(fp)
 4012360:	10c00715 	stw	r3,28(r2)
   fs->fatbase = bsect + nrsv;                  /* FAT start sector */
 4012364:	e0fff00b 	ldhu	r3,-64(fp)
 4012368:	e0bff617 	ldw	r2,-40(fp)
 401236c:	1887883a 	add	r3,r3,r2
 4012370:	e0bfee17 	ldw	r2,-72(fp)
 4012374:	10c00515 	stw	r3,20(r2)
   if (fmt == FS_FAT32) {
 4012378:	e0bffa83 	ldbu	r2,-22(fp)
 401237c:	108000d8 	cmpnei	r2,r2,3
 4012380:	10002a1e 	bne	r2,zero,401242c <chk_mounted+0x724>
      if (fs->n_rootdir) return FR_NO_FILESYSTEM;     /* (BPB_RootEntCnt must be 0) */
 4012384:	e0bfee17 	ldw	r2,-72(fp)
 4012388:	1080020b 	ldhu	r2,8(r2)
 401238c:	10bfffcc 	andi	r2,r2,65535
 4012390:	1005003a 	cmpeq	r2,r2,zero
 4012394:	1000031e 	bne	r2,zero,40123a4 <chk_mounted+0x69c>
 4012398:	00800344 	movi	r2,13
 401239c:	e0bfff15 	stw	r2,-4(fp)
 40123a0:	00005c06 	br	4012514 <chk_mounted+0x80c>
      fs->dirbase = LD_DWORD(fs->win+BPB_RootClus);   /* Root directory start cluster */
 40123a4:	e0bfee17 	ldw	r2,-72(fp)
 40123a8:	10800904 	addi	r2,r2,36
 40123ac:	10800bc4 	addi	r2,r2,47
 40123b0:	10800003 	ldbu	r2,0(r2)
 40123b4:	10803fcc 	andi	r2,r2,255
 40123b8:	1006963a 	slli	r3,r2,24
 40123bc:	e0bfee17 	ldw	r2,-72(fp)
 40123c0:	10800904 	addi	r2,r2,36
 40123c4:	10800b84 	addi	r2,r2,46
 40123c8:	10800003 	ldbu	r2,0(r2)
 40123cc:	10803fcc 	andi	r2,r2,255
 40123d0:	1004943a 	slli	r2,r2,16
 40123d4:	1886b03a 	or	r3,r3,r2
 40123d8:	e0bfee17 	ldw	r2,-72(fp)
 40123dc:	10800904 	addi	r2,r2,36
 40123e0:	10800b44 	addi	r2,r2,45
 40123e4:	10800003 	ldbu	r2,0(r2)
 40123e8:	10803fcc 	andi	r2,r2,255
 40123ec:	1004923a 	slli	r2,r2,8
 40123f0:	1886b03a 	or	r3,r3,r2
 40123f4:	e0bfee17 	ldw	r2,-72(fp)
 40123f8:	10800904 	addi	r2,r2,36
 40123fc:	10800b04 	addi	r2,r2,44
 4012400:	10800003 	ldbu	r2,0(r2)
 4012404:	10803fcc 	andi	r2,r2,255
 4012408:	1886b03a 	or	r3,r3,r2
 401240c:	e0bfee17 	ldw	r2,-72(fp)
 4012410:	10c00615 	stw	r3,24(r2)
      szbfat = fs->n_fatent * 4;                /* (Required FAT size) */
 4012414:	e0bfee17 	ldw	r2,-72(fp)
 4012418:	10800317 	ldw	r2,12(r2)
 401241c:	1085883a 	add	r2,r2,r2
 4012420:	1085883a 	add	r2,r2,r2
 4012424:	e0bff115 	stw	r2,-60(fp)
 4012428:	00002306 	br	40124b8 <chk_mounted+0x7b0>
   } else {
      if (!fs->n_rootdir)  return FR_NO_FILESYSTEM;   /* (BPB_RootEntCnt must not be 0) */
 401242c:	e0bfee17 	ldw	r2,-72(fp)
 4012430:	1080020b 	ldhu	r2,8(r2)
 4012434:	10bfffcc 	andi	r2,r2,65535
 4012438:	1004c03a 	cmpne	r2,r2,zero
 401243c:	1000031e 	bne	r2,zero,401244c <chk_mounted+0x744>
 4012440:	00800344 	movi	r2,13
 4012444:	e0bfff15 	stw	r2,-4(fp)
 4012448:	00003206 	br	4012514 <chk_mounted+0x80c>
      fs->dirbase = fs->fatbase + fasize;          /* Root directory start sector */
 401244c:	e0bfee17 	ldw	r2,-72(fp)
 4012450:	10c00517 	ldw	r3,20(r2)
 4012454:	e0bff517 	ldw	r2,-44(fp)
 4012458:	1887883a 	add	r3,r3,r2
 401245c:	e0bfee17 	ldw	r2,-72(fp)
 4012460:	10c00615 	stw	r3,24(r2)
      szbfat = (fmt == FS_FAT16) ?              /* (Required FAT size) */
 4012464:	e0bffa83 	ldbu	r2,-22(fp)
 4012468:	10800098 	cmpnei	r2,r2,2
 401246c:	1000051e 	bne	r2,zero,4012484 <chk_mounted+0x77c>
 4012470:	e0bfee17 	ldw	r2,-72(fp)
 4012474:	10800317 	ldw	r2,12(r2)
 4012478:	1085883a 	add	r2,r2,r2
 401247c:	e0bffe15 	stw	r2,-8(fp)
 4012480:	00000b06 	br	40124b0 <chk_mounted+0x7a8>
 4012484:	e0bfee17 	ldw	r2,-72(fp)
 4012488:	10c00317 	ldw	r3,12(r2)
 401248c:	1805883a 	mov	r2,r3
 4012490:	1085883a 	add	r2,r2,r2
 4012494:	10c5883a 	add	r2,r2,r3
 4012498:	1006d07a 	srli	r3,r2,1
 401249c:	e0bfee17 	ldw	r2,-72(fp)
 40124a0:	10800317 	ldw	r2,12(r2)
 40124a4:	1080004c 	andi	r2,r2,1
 40124a8:	1887883a 	add	r3,r3,r2
 40124ac:	e0fffe15 	stw	r3,-8(fp)
 40124b0:	e0bffe17 	ldw	r2,-8(fp)
 40124b4:	e0bff115 	stw	r2,-60(fp)
         fs->n_fatent * 2 : fs->n_fatent * 3 / 2 + (fs->n_fatent & 1);
   }
   if (fs->fsize < (szbfat + (SS(fs) - 1)) / SS(fs))  /* (BPB_FATSz must not be less than required) */
 40124b8:	e0bfee17 	ldw	r2,-72(fp)
 40124bc:	10c00417 	ldw	r3,16(r2)
 40124c0:	e0bff117 	ldw	r2,-60(fp)
 40124c4:	10807fc4 	addi	r2,r2,511
 40124c8:	1004d27a 	srli	r2,r2,9
 40124cc:	1880032e 	bgeu	r3,r2,40124dc <chk_mounted+0x7d4>
      return FR_NO_FILESYSTEM;
 40124d0:	00800344 	movi	r2,13
 40124d4:	e0bfff15 	stw	r2,-4(fp)
 40124d8:	00000e06 	br	4012514 <chk_mounted+0x80c>
            fs->last_clust = LD_DWORD(fs->win+FSI_Nxt_Free);
            fs->free_clust = LD_DWORD(fs->win+FSI_Free_Count);
      }
   }
#endif
   fs->fs_type = fmt;      /* FAT sub-type */
 40124dc:	e0ffee17 	ldw	r3,-72(fp)
 40124e0:	e0bffa83 	ldbu	r2,-22(fp)
 40124e4:	18800005 	stb	r2,0(r3)
   fs->id = ++Fsid;     /* File system mount ID */
 40124e8:	d0a0db0b 	ldhu	r2,-31892(gp)
 40124ec:	10800044 	addi	r2,r2,1
 40124f0:	d0a0db0d 	sth	r2,-31892(gp)
 40124f4:	d0e0db0b 	ldhu	r3,-31892(gp)
 40124f8:	e0bfee17 	ldw	r2,-72(fp)
 40124fc:	10c0018d 	sth	r3,6(r2)
   fs->winsect = 0;     /* Invalidate sector cache */
 4012500:	e0bfee17 	ldw	r2,-72(fp)
 4012504:	10000815 	stw	zero,32(r2)
   fs->wflag = 0;
 4012508:	e0bfee17 	ldw	r2,-72(fp)
 401250c:	10000105 	stb	zero,4(r2)
#endif
#if _FS_SHARE           /* Clear file lock semaphores */
   clear_lock(fs);
#endif

   return FR_OK;
 4012510:	e03fff15 	stw	zero,-4(fp)
 4012514:	e0bfff17 	ldw	r2,-4(fp)
}
 4012518:	e037883a 	mov	sp,fp
 401251c:	dfc00117 	ldw	ra,4(sp)
 4012520:	df000017 	ldw	fp,0(sp)
 4012524:	dec00204 	addi	sp,sp,8
 4012528:	f800283a 	ret

0401252c <validate>:
static
FRESULT validate (   /* FR_OK(0): The object is valid, !=0: Invalid */
   FATFS *fs,     /* Pointer to the file system object */
   FFS_U16 id        /* Member id of the target object to be checked */
)
{
 401252c:	defffb04 	addi	sp,sp,-20
 4012530:	dfc00415 	stw	ra,16(sp)
 4012534:	df000315 	stw	fp,12(sp)
 4012538:	df000304 	addi	fp,sp,12
 401253c:	e13ffd15 	stw	r4,-12(fp)
 4012540:	e17ffe0d 	sth	r5,-8(fp)
   if (!fs || !fs->fs_type || fs->id != id)
 4012544:	e0bffd17 	ldw	r2,-12(fp)
 4012548:	1005003a 	cmpeq	r2,r2,zero
 401254c:	10000a1e 	bne	r2,zero,4012578 <validate+0x4c>
 4012550:	e0bffd17 	ldw	r2,-12(fp)
 4012554:	10800003 	ldbu	r2,0(r2)
 4012558:	10803fcc 	andi	r2,r2,255
 401255c:	1005003a 	cmpeq	r2,r2,zero
 4012560:	1000051e 	bne	r2,zero,4012578 <validate+0x4c>
 4012564:	e0bffd17 	ldw	r2,-12(fp)
 4012568:	1080018b 	ldhu	r2,6(r2)
 401256c:	10ffffcc 	andi	r3,r2,65535
 4012570:	e0bffe0b 	ldhu	r2,-8(fp)
 4012574:	18800326 	beq	r3,r2,4012584 <validate+0x58>
      return FR_INVALID_OBJECT;
 4012578:	00800244 	movi	r2,9
 401257c:	e0bfff15 	stw	r2,-4(fp)
 4012580:	00000d06 	br	40125b8 <validate+0x8c>

   ENTER_FF(fs);     /* Lock file system */

   if (disk_status(fs->drv) & STA_NOINIT)
 4012584:	e0bffd17 	ldw	r2,-12(fp)
 4012588:	10800043 	ldbu	r2,1(r2)
 401258c:	11003fcc 	andi	r4,r2,255
 4012590:	4013fa40 	call	4013fa4 <ffs_DiskIOStatus>
 4012594:	10803fcc 	andi	r2,r2,255
 4012598:	1080004c 	andi	r2,r2,1
 401259c:	10803fcc 	andi	r2,r2,255
 40125a0:	1005003a 	cmpeq	r2,r2,zero
 40125a4:	1000031e 	bne	r2,zero,40125b4 <validate+0x88>
      return FR_NOT_READY;
 40125a8:	008000c4 	movi	r2,3
 40125ac:	e0bfff15 	stw	r2,-4(fp)
 40125b0:	00000106 	br	40125b8 <validate+0x8c>

   return FR_OK;
 40125b4:	e03fff15 	stw	zero,-4(fp)
 40125b8:	e0bfff17 	ldw	r2,-4(fp)
}
 40125bc:	e037883a 	mov	sp,fp
 40125c0:	dfc00117 	ldw	ra,4(sp)
 40125c4:	df000017 	ldw	fp,0(sp)
 40125c8:	dec00204 	addi	sp,sp,8
 40125cc:	f800283a 	ret

040125d0 <f_mount>:

FRESULT f_mount (
   FFS_U8 vol,      /* Logical drive number to be mounted/unmounted */
   FATFS *fs      /* Pointer to new file system object (NULL for unmount)*/
)
{
 40125d0:	defffb04 	addi	sp,sp,-20
 40125d4:	df000415 	stw	fp,16(sp)
 40125d8:	df000404 	addi	fp,sp,16
 40125dc:	e17ffe15 	stw	r5,-8(fp)
 40125e0:	e13ffd05 	stb	r4,-12(fp)
   FATFS *rfs;


   if (vol >= _VOLUMES)    /* Check if the drive number is valid */
 40125e4:	e0bffd03 	ldbu	r2,-12(fp)
 40125e8:	1005003a 	cmpeq	r2,r2,zero
 40125ec:	1000031e 	bne	r2,zero,40125fc <f_mount+0x2c>
      return FR_INVALID_DRIVE;
 40125f0:	008002c4 	movi	r2,11
 40125f4:	e0bfff15 	stw	r2,-4(fp)
 40125f8:	00001906 	br	4012660 <f_mount+0x90>
   rfs = FatFs[vol];       /* Get current fs object */
 40125fc:	e0bffd03 	ldbu	r2,-12(fp)
 4012600:	1085883a 	add	r2,r2,r2
 4012604:	1087883a 	add	r3,r2,r2
 4012608:	d0a0da04 	addi	r2,gp,-31896
 401260c:	1885883a 	add	r2,r3,r2
 4012610:	10800017 	ldw	r2,0(r2)
 4012614:	e0bffc15 	stw	r2,-16(fp)

   if (rfs) {
 4012618:	e0bffc17 	ldw	r2,-16(fp)
 401261c:	1005003a 	cmpeq	r2,r2,zero
 4012620:	1000021e 	bne	r2,zero,401262c <f_mount+0x5c>
      clear_lock(rfs);
#endif
#if _FS_REENTRANT          /* Discard sync object of the current volume */
      if (!ff_del_syncobj(rfs->sobj)) return FR_INT_ERR;
#endif
      rfs->fs_type = 0;    /* Clear old fs object */
 4012624:	e0bffc17 	ldw	r2,-16(fp)
 4012628:	10000005 	stb	zero,0(r2)
   }

   if (fs) {
 401262c:	e0bffe17 	ldw	r2,-8(fp)
 4012630:	1005003a 	cmpeq	r2,r2,zero
 4012634:	1000021e 	bne	r2,zero,4012640 <f_mount+0x70>
      fs->fs_type = 0;     /* Clear new fs object */
 4012638:	e0bffe17 	ldw	r2,-8(fp)
 401263c:	10000005 	stb	zero,0(r2)
#if _FS_REENTRANT          /* Create sync object for the new volume */
      if (!ff_cre_syncobj(vol, &fs->sobj)) return FR_INT_ERR;
#endif
   }
   FatFs[vol] = fs;        /* Register new fs object */
 4012640:	e0bffd03 	ldbu	r2,-12(fp)
 4012644:	1085883a 	add	r2,r2,r2
 4012648:	1087883a 	add	r3,r2,r2
 401264c:	d0a0da04 	addi	r2,gp,-31896
 4012650:	1887883a 	add	r3,r3,r2
 4012654:	e0bffe17 	ldw	r2,-8(fp)
 4012658:	18800015 	stw	r2,0(r3)

   return FR_OK;
 401265c:	e03fff15 	stw	zero,-4(fp)
 4012660:	e0bfff17 	ldw	r2,-4(fp)
}
 4012664:	e037883a 	mov	sp,fp
 4012668:	df000017 	ldw	fp,0(sp)
 401266c:	dec00104 	addi	sp,sp,4
 4012670:	f800283a 	ret

04012674 <f_open>:
FRESULT f_open (
   FIL *fp,       /* Pointer to the blank file object */
   const TCHAR *path,   /* Pointer to the file name */
   FFS_U8 mode         /* Access mode and file open mode flags */
)
{
 4012674:	deffef04 	addi	sp,sp,-68
 4012678:	dfc01015 	stw	ra,64(sp)
 401267c:	df000f15 	stw	fp,60(sp)
 4012680:	df000f04 	addi	fp,sp,60
 4012684:	e13ffd15 	stw	r4,-12(fp)
 4012688:	e17ffe15 	stw	r5,-8(fp)
 401268c:	e1bfff05 	stb	r6,-4(fp)
   DIR dj;
   FFS_U8 *dir;
   DEF_NAMEBUF;


   fp->fs = 0;       /* Clear file object */
 4012690:	e0bffd17 	ldw	r2,-12(fp)
 4012694:	10000015 	stw	zero,0(r2)

#if !_FS_READONLY
   mode &= FA_READ | FA_WRITE | FA_CREATE_ALWAYS | FA_OPEN_ALWAYS | FA_CREATE_NEW;
   res = chk_mounted(&path, &dj.fs, (FFS_U8)(mode & ~FA_READ));
#else
   mode &= FA_READ;
 4012698:	e0bfff03 	ldbu	r2,-4(fp)
 401269c:	1080004c 	andi	r2,r2,1
 40126a0:	e0bfff05 	stb	r2,-4(fp)
   res = chk_mounted(&path, &dj.fs, 0);
 40126a4:	e13ffe04 	addi	r4,fp,-8
 40126a8:	e17ff304 	addi	r5,fp,-52
 40126ac:	000d883a 	mov	r6,zero
 40126b0:	4011d080 	call	4011d08 <chk_mounted>
 40126b4:	e0bff215 	stw	r2,-56(fp)
#endif
   INIT_BUF(dj);
 40126b8:	e0bffa04 	addi	r2,fp,-24
 40126bc:	e0bff915 	stw	r2,-28(fp)
   if (res == FR_OK)
 40126c0:	e0bff217 	ldw	r2,-56(fp)
 40126c4:	1004c03a 	cmpne	r2,r2,zero
 40126c8:	1000041e 	bne	r2,zero,40126dc <f_open+0x68>
      res = follow_path(&dj, path); /* Follow the file path */
 40126cc:	e17ffe17 	ldw	r5,-8(fp)
 40126d0:	e13ff304 	addi	r4,fp,-52
 40126d4:	40119640 	call	4011964 <follow_path>
 40126d8:	e0bff215 	stw	r2,-56(fp)
   dir = dj.dir;
 40126dc:	e0bff817 	ldw	r2,-32(fp)
 40126e0:	e0bff115 	stw	r2,-60(fp)
      if (!fp->lockid) res = FR_INT_ERR;
#endif
   }

#else          /* R/O configuration */
   if (res == FR_OK) {              /* Follow succeeded */
 40126e4:	e0bff217 	ldw	r2,-56(fp)
 40126e8:	1004c03a 	cmpne	r2,r2,zero
 40126ec:	10000f1e 	bne	r2,zero,401272c <f_open+0xb8>
      if (!dir) {                /* Current dir itself */
 40126f0:	e0bff117 	ldw	r2,-60(fp)
 40126f4:	1004c03a 	cmpne	r2,r2,zero
 40126f8:	1000031e 	bne	r2,zero,4012708 <f_open+0x94>
         res = FR_INVALID_NAME;
 40126fc:	00800184 	movi	r2,6
 4012700:	e0bff215 	stw	r2,-56(fp)
 4012704:	00000906 	br	401272c <f_open+0xb8>
      } else {
         if (dir[DIR_Attr] & AM_DIR)   /* It is a directory */
 4012708:	e0bff117 	ldw	r2,-60(fp)
 401270c:	108002c4 	addi	r2,r2,11
 4012710:	10800003 	ldbu	r2,0(r2)
 4012714:	10803fcc 	andi	r2,r2,255
 4012718:	1080040c 	andi	r2,r2,16
 401271c:	1005003a 	cmpeq	r2,r2,zero
 4012720:	1000021e 	bne	r2,zero,401272c <f_open+0xb8>
            res = FR_NO_FILE;
 4012724:	00800104 	movi	r2,4
 4012728:	e0bff215 	stw	r2,-56(fp)
      }
   }
#endif
   FREE_BUF();

   if (res == FR_OK) {
 401272c:	e0bff217 	ldw	r2,-56(fp)
 4012730:	1004c03a 	cmpne	r2,r2,zero
 4012734:	1000421e 	bne	r2,zero,4012840 <f_open+0x1cc>
      fp->flag = mode;              /* File access mode */
 4012738:	e0fffd17 	ldw	r3,-12(fp)
 401273c:	e0bfff03 	ldbu	r2,-4(fp)
 4012740:	18800185 	stb	r2,6(r3)
      fp->sclust = LD_CLUST(dir);         /* File start cluster */
 4012744:	e0bff117 	ldw	r2,-60(fp)
 4012748:	10800544 	addi	r2,r2,21
 401274c:	10800003 	ldbu	r2,0(r2)
 4012750:	10803fcc 	andi	r2,r2,255
 4012754:	1004923a 	slli	r2,r2,8
 4012758:	1007883a 	mov	r3,r2
 401275c:	e0bff117 	ldw	r2,-60(fp)
 4012760:	10800504 	addi	r2,r2,20
 4012764:	10800003 	ldbu	r2,0(r2)
 4012768:	10803fcc 	andi	r2,r2,255
 401276c:	1884b03a 	or	r2,r3,r2
 4012770:	10bfffcc 	andi	r2,r2,65535
 4012774:	1008943a 	slli	r4,r2,16
 4012778:	e0bff117 	ldw	r2,-60(fp)
 401277c:	108006c4 	addi	r2,r2,27
 4012780:	10800003 	ldbu	r2,0(r2)
 4012784:	10803fcc 	andi	r2,r2,255
 4012788:	1004923a 	slli	r2,r2,8
 401278c:	1007883a 	mov	r3,r2
 4012790:	e0bff117 	ldw	r2,-60(fp)
 4012794:	10800684 	addi	r2,r2,26
 4012798:	10800003 	ldbu	r2,0(r2)
 401279c:	10803fcc 	andi	r2,r2,255
 40127a0:	1884b03a 	or	r2,r3,r2
 40127a4:	10bfffcc 	andi	r2,r2,65535
 40127a8:	2086b03a 	or	r3,r4,r2
 40127ac:	e0bffd17 	ldw	r2,-12(fp)
 40127b0:	10c00415 	stw	r3,16(r2)
      fp->fsize = LD_DWORD(dir+DIR_FileSize);   /* File size */
 40127b4:	e0bff117 	ldw	r2,-60(fp)
 40127b8:	108007c4 	addi	r2,r2,31
 40127bc:	10800003 	ldbu	r2,0(r2)
 40127c0:	10803fcc 	andi	r2,r2,255
 40127c4:	1006963a 	slli	r3,r2,24
 40127c8:	e0bff117 	ldw	r2,-60(fp)
 40127cc:	10800784 	addi	r2,r2,30
 40127d0:	10800003 	ldbu	r2,0(r2)
 40127d4:	10803fcc 	andi	r2,r2,255
 40127d8:	1004943a 	slli	r2,r2,16
 40127dc:	1886b03a 	or	r3,r3,r2
 40127e0:	e0bff117 	ldw	r2,-60(fp)
 40127e4:	10800744 	addi	r2,r2,29
 40127e8:	10800003 	ldbu	r2,0(r2)
 40127ec:	10803fcc 	andi	r2,r2,255
 40127f0:	1004923a 	slli	r2,r2,8
 40127f4:	1886b03a 	or	r3,r3,r2
 40127f8:	e0bff117 	ldw	r2,-60(fp)
 40127fc:	10800704 	addi	r2,r2,28
 4012800:	10800003 	ldbu	r2,0(r2)
 4012804:	10803fcc 	andi	r2,r2,255
 4012808:	1886b03a 	or	r3,r3,r2
 401280c:	e0bffd17 	ldw	r2,-12(fp)
 4012810:	10c00315 	stw	r3,12(r2)
      fp->fptr = 0;                 /* File pointer */
 4012814:	e0bffd17 	ldw	r2,-12(fp)
 4012818:	10000215 	stw	zero,8(r2)
      fp->dsect = 0;
 401281c:	e0bffd17 	ldw	r2,-12(fp)
 4012820:	10000615 	stw	zero,24(r2)
#if _USE_FASTSEEK
      fp->cltbl = 0;                /* Normal seek mode */
#endif
      fp->fs = dj.fs; fp->id = dj.fs->id; /* Validate file object */
 4012824:	e0fff317 	ldw	r3,-52(fp)
 4012828:	e0bffd17 	ldw	r2,-12(fp)
 401282c:	10c00015 	stw	r3,0(r2)
 4012830:	e0bff317 	ldw	r2,-52(fp)
 4012834:	10c0018b 	ldhu	r3,6(r2)
 4012838:	e0bffd17 	ldw	r2,-12(fp)
 401283c:	10c0010d 	sth	r3,4(r2)
   }

   LEAVE_FF(dj.fs, res);
 4012840:	e0bff217 	ldw	r2,-56(fp)
}
 4012844:	e037883a 	mov	sp,fp
 4012848:	dfc00117 	ldw	ra,4(sp)
 401284c:	df000017 	ldw	fp,0(sp)
 4012850:	dec00204 	addi	sp,sp,8
 4012854:	f800283a 	ret

04012858 <f_read>:
   FIL *fp,       /* Pointer to the file object */
   void *buff,    /* Pointer to data buffer */
   FFS_U32 btr,      /* Number of bytes to read */
   FFS_U32 *br    /* Pointer to number of bytes read */
)
{
 4012858:	defff104 	addi	sp,sp,-60
 401285c:	dfc00e15 	stw	ra,56(sp)
 4012860:	df000d15 	stw	fp,52(sp)
 4012864:	df000d04 	addi	fp,sp,52
 4012868:	e13ffb15 	stw	r4,-20(fp)
 401286c:	e17ffc15 	stw	r5,-16(fp)
 4012870:	e1bffd15 	stw	r6,-12(fp)
 4012874:	e1fffe15 	stw	r7,-8(fp)
   FRESULT res;
   FFS_U32 clst, sect, remain;
   FFS_U32 rcnt, cc;
   FFS_U8 csect, *rbuff = buff;
 4012878:	e0bffc17 	ldw	r2,-16(fp)
 401287c:	e0bff315 	stw	r2,-52(fp)


   *br = 0; /* Initialize byte counter */
 4012880:	e0bffe17 	ldw	r2,-8(fp)
 4012884:	10000015 	stw	zero,0(r2)

   res = validate(fp->fs, fp->id);           /* Check validity */
 4012888:	e0bffb17 	ldw	r2,-20(fp)
 401288c:	11000017 	ldw	r4,0(r2)
 4012890:	e0bffb17 	ldw	r2,-20(fp)
 4012894:	1080010b 	ldhu	r2,4(r2)
 4012898:	117fffcc 	andi	r5,r2,65535
 401289c:	401252c0 	call	401252c <validate>
 40128a0:	e0bffa15 	stw	r2,-24(fp)
   if (res != FR_OK) LEAVE_FF(fp->fs, res);
 40128a4:	e0bffa17 	ldw	r2,-24(fp)
 40128a8:	1005003a 	cmpeq	r2,r2,zero
 40128ac:	1000031e 	bne	r2,zero,40128bc <f_read+0x64>
 40128b0:	e0bffa17 	ldw	r2,-24(fp)
 40128b4:	e0bfff15 	stw	r2,-4(fp)
 40128b8:	0000e906 	br	4012c60 <f_read+0x408>
   if (fp->flag & FA__ERROR)              /* Aborted file? */
 40128bc:	e0bffb17 	ldw	r2,-20(fp)
 40128c0:	10800183 	ldbu	r2,6(r2)
 40128c4:	10803fcc 	andi	r2,r2,255
 40128c8:	1080201c 	xori	r2,r2,128
 40128cc:	10bfe004 	addi	r2,r2,-128
 40128d0:	1004403a 	cmpge	r2,r2,zero
 40128d4:	1000031e 	bne	r2,zero,40128e4 <f_read+0x8c>
      LEAVE_FF(fp->fs, FR_INT_ERR);
 40128d8:	00800084 	movi	r2,2
 40128dc:	e0bfff15 	stw	r2,-4(fp)
 40128e0:	0000df06 	br	4012c60 <f_read+0x408>
   if (!(fp->flag & FA_READ))                /* Check access mode */
 40128e4:	e0bffb17 	ldw	r2,-20(fp)
 40128e8:	10800183 	ldbu	r2,6(r2)
 40128ec:	10803fcc 	andi	r2,r2,255
 40128f0:	1080004c 	andi	r2,r2,1
 40128f4:	1004c03a 	cmpne	r2,r2,zero
 40128f8:	1000031e 	bne	r2,zero,4012908 <f_read+0xb0>
      LEAVE_FF(fp->fs, FR_DENIED);
 40128fc:	008001c4 	movi	r2,7
 4012900:	e0bfff15 	stw	r2,-4(fp)
 4012904:	0000d606 	br	4012c60 <f_read+0x408>
   remain = fp->fsize - fp->fptr;
 4012908:	e0bffb17 	ldw	r2,-20(fp)
 401290c:	10c00317 	ldw	r3,12(r2)
 4012910:	e0bffb17 	ldw	r2,-20(fp)
 4012914:	10800217 	ldw	r2,8(r2)
 4012918:	1885c83a 	sub	r2,r3,r2
 401291c:	e0bff715 	stw	r2,-36(fp)
   if (btr > remain) btr = (FFS_U32)remain;     /* Truncate btr by remaining bytes */
 4012920:	e0fffd17 	ldw	r3,-12(fp)
 4012924:	e0bff717 	ldw	r2,-36(fp)
 4012928:	10c0c92e 	bgeu	r2,r3,4012c50 <f_read+0x3f8>
 401292c:	e0bff717 	ldw	r2,-36(fp)
 4012930:	e0bffd15 	stw	r2,-12(fp)

   for ( ;  btr;                       /* Repeat until all data read */
 4012934:	0000c606 	br	4012c50 <f_read+0x3f8>
      rbuff += rcnt, fp->fptr += rcnt, *br += rcnt, btr -= rcnt) {
      if ((fp->fptr % SS(fp->fs)) == 0) {    /* On the sector boundary? */
 4012938:	e0bffb17 	ldw	r2,-20(fp)
 401293c:	10800217 	ldw	r2,8(r2)
 4012940:	10807fcc 	andi	r2,r2,511
 4012944:	1004c03a 	cmpne	r2,r2,zero
 4012948:	1000991e 	bne	r2,zero,4012bb0 <f_read+0x358>
         csect = (FFS_U8)(fp->fptr / SS(fp->fs) & (fp->fs->csize - 1));   /* Sector offset in the cluster */
 401294c:	e0bffb17 	ldw	r2,-20(fp)
 4012950:	10800217 	ldw	r2,8(r2)
 4012954:	1004d27a 	srli	r2,r2,9
 4012958:	1007883a 	mov	r3,r2
 401295c:	e0bffb17 	ldw	r2,-20(fp)
 4012960:	10800017 	ldw	r2,0(r2)
 4012964:	10800083 	ldbu	r2,2(r2)
 4012968:	10bfffc4 	addi	r2,r2,-1
 401296c:	1884703a 	and	r2,r3,r2
 4012970:	e0bff405 	stb	r2,-48(fp)
         if (!csect) {                 /* On the cluster boundary? */
 4012974:	e0bff403 	ldbu	r2,-48(fp)
 4012978:	1004c03a 	cmpne	r2,r2,zero
 401297c:	10002b1e 	bne	r2,zero,4012a2c <f_read+0x1d4>
            if (fp->fptr == 0) {       /* On the top of the file? */
 4012980:	e0bffb17 	ldw	r2,-20(fp)
 4012984:	10800217 	ldw	r2,8(r2)
 4012988:	1004c03a 	cmpne	r2,r2,zero
 401298c:	1000041e 	bne	r2,zero,40129a0 <f_read+0x148>
               clst = fp->sclust;         /* Follow from the origin */
 4012990:	e0bffb17 	ldw	r2,-20(fp)
 4012994:	10800417 	ldw	r2,16(r2)
 4012998:	e0bff915 	stw	r2,-28(fp)
 401299c:	00000606 	br	40129b8 <f_read+0x160>
#if _USE_FASTSEEK
               if (fp->cltbl)
                  clst = clmt_clust(fp, fp->fptr); /* Get cluster# from the CLMT */
               else
#endif
                  clst = get_fat(fp->fs, fp->clust);  /* Follow cluster chain on the FAT */
 40129a0:	e0bffb17 	ldw	r2,-20(fp)
 40129a4:	11000017 	ldw	r4,0(r2)
 40129a8:	e0bffb17 	ldw	r2,-20(fp)
 40129ac:	11400517 	ldw	r5,20(r2)
 40129b0:	4010ba80 	call	4010ba8 <get_fat>
 40129b4:	e0bff915 	stw	r2,-28(fp)
            }
            if (clst < 2) ABORT(fp->fs, FR_INT_ERR);
 40129b8:	e0bff917 	ldw	r2,-28(fp)
 40129bc:	108000a8 	cmpgeui	r2,r2,2
 40129c0:	10000a1e 	bne	r2,zero,40129ec <f_read+0x194>
 40129c4:	e0bffb17 	ldw	r2,-20(fp)
 40129c8:	10c00183 	ldbu	r3,6(r2)
 40129cc:	00bfe004 	movi	r2,-128
 40129d0:	1884b03a 	or	r2,r3,r2
 40129d4:	1007883a 	mov	r3,r2
 40129d8:	e0bffb17 	ldw	r2,-20(fp)
 40129dc:	10c00185 	stb	r3,6(r2)
 40129e0:	00800084 	movi	r2,2
 40129e4:	e0bfff15 	stw	r2,-4(fp)
 40129e8:	00009d06 	br	4012c60 <f_read+0x408>
            if (clst == 0xFFFFFFFF) ABORT(fp->fs, FR_DISK_ERR);
 40129ec:	e0bff917 	ldw	r2,-28(fp)
 40129f0:	10bfffd8 	cmpnei	r2,r2,-1
 40129f4:	10000a1e 	bne	r2,zero,4012a20 <f_read+0x1c8>
 40129f8:	e0bffb17 	ldw	r2,-20(fp)
 40129fc:	10c00183 	ldbu	r3,6(r2)
 4012a00:	00bfe004 	movi	r2,-128
 4012a04:	1884b03a 	or	r2,r3,r2
 4012a08:	1007883a 	mov	r3,r2
 4012a0c:	e0bffb17 	ldw	r2,-20(fp)
 4012a10:	10c00185 	stb	r3,6(r2)
 4012a14:	00800044 	movi	r2,1
 4012a18:	e0bfff15 	stw	r2,-4(fp)
 4012a1c:	00009006 	br	4012c60 <f_read+0x408>
            fp->clust = clst;          /* Update current cluster */
 4012a20:	e0fffb17 	ldw	r3,-20(fp)
 4012a24:	e0bff917 	ldw	r2,-28(fp)
 4012a28:	18800515 	stw	r2,20(r3)
         }
         sect = clust2sect(fp->fs, fp->clust);  /* Get current sector */
 4012a2c:	e0bffb17 	ldw	r2,-20(fp)
 4012a30:	11000017 	ldw	r4,0(r2)
 4012a34:	e0bffb17 	ldw	r2,-20(fp)
 4012a38:	11400517 	ldw	r5,20(r2)
 4012a3c:	4010b280 	call	4010b28 <clust2sect>
 4012a40:	e0bff815 	stw	r2,-32(fp)
         if (!sect) ABORT(fp->fs, FR_INT_ERR);
 4012a44:	e0bff817 	ldw	r2,-32(fp)
 4012a48:	1004c03a 	cmpne	r2,r2,zero
 4012a4c:	10000a1e 	bne	r2,zero,4012a78 <f_read+0x220>
 4012a50:	e0bffb17 	ldw	r2,-20(fp)
 4012a54:	10c00183 	ldbu	r3,6(r2)
 4012a58:	00bfe004 	movi	r2,-128
 4012a5c:	1884b03a 	or	r2,r3,r2
 4012a60:	1007883a 	mov	r3,r2
 4012a64:	e0bffb17 	ldw	r2,-20(fp)
 4012a68:	10c00185 	stb	r3,6(r2)
 4012a6c:	00800084 	movi	r2,2
 4012a70:	e0bfff15 	stw	r2,-4(fp)
 4012a74:	00007a06 	br	4012c60 <f_read+0x408>
         sect += csect;
 4012a78:	e0fff403 	ldbu	r3,-48(fp)
 4012a7c:	e0bff817 	ldw	r2,-32(fp)
 4012a80:	10c5883a 	add	r2,r2,r3
 4012a84:	e0bff815 	stw	r2,-32(fp)
         cc = btr / SS(fp->fs);           /* When remaining bytes >= sector size, */
 4012a88:	e0bffd17 	ldw	r2,-12(fp)
 4012a8c:	1004d27a 	srli	r2,r2,9
 4012a90:	e0bff515 	stw	r2,-44(fp)
         if (cc) {                     /* Read maximum contiguous sectors directly */
 4012a94:	e0bff517 	ldw	r2,-44(fp)
 4012a98:	1005003a 	cmpeq	r2,r2,zero
 4012a9c:	1000281e 	bne	r2,zero,4012b40 <f_read+0x2e8>
            if (csect + cc > fp->fs->csize)  /* Clip at cluster boundary */
 4012aa0:	e0fff403 	ldbu	r3,-48(fp)
 4012aa4:	e0bff517 	ldw	r2,-44(fp)
 4012aa8:	1887883a 	add	r3,r3,r2
 4012aac:	e0bffb17 	ldw	r2,-20(fp)
 4012ab0:	10800017 	ldw	r2,0(r2)
 4012ab4:	10800083 	ldbu	r2,2(r2)
 4012ab8:	10803fcc 	andi	r2,r2,255
 4012abc:	10c0072e 	bgeu	r2,r3,4012adc <f_read+0x284>
               cc = fp->fs->csize - csect;
 4012ac0:	e0bffb17 	ldw	r2,-20(fp)
 4012ac4:	10800017 	ldw	r2,0(r2)
 4012ac8:	10800083 	ldbu	r2,2(r2)
 4012acc:	10c03fcc 	andi	r3,r2,255
 4012ad0:	e0bff403 	ldbu	r2,-48(fp)
 4012ad4:	1885c83a 	sub	r2,r3,r2
 4012ad8:	e0bff515 	stw	r2,-44(fp)
            if (disk_read(fp->fs->drv, rbuff, sect, (FFS_U8)cc) != RES_OK)
 4012adc:	e0bffb17 	ldw	r2,-20(fp)
 4012ae0:	10800017 	ldw	r2,0(r2)
 4012ae4:	10800043 	ldbu	r2,1(r2)
 4012ae8:	11003fcc 	andi	r4,r2,255
 4012aec:	e0bff517 	ldw	r2,-44(fp)
 4012af0:	11c03fcc 	andi	r7,r2,255
 4012af4:	e17ff317 	ldw	r5,-52(fp)
 4012af8:	e1bff817 	ldw	r6,-32(fp)
 4012afc:	4013fcc0 	call	4013fcc <ffs_DiskIORead>
 4012b00:	1005003a 	cmpeq	r2,r2,zero
 4012b04:	10000a1e 	bne	r2,zero,4012b30 <f_read+0x2d8>
               ABORT(fp->fs, FR_DISK_ERR);
 4012b08:	e0bffb17 	ldw	r2,-20(fp)
 4012b0c:	10c00183 	ldbu	r3,6(r2)
 4012b10:	00bfe004 	movi	r2,-128
 4012b14:	1884b03a 	or	r2,r3,r2
 4012b18:	1007883a 	mov	r3,r2
 4012b1c:	e0bffb17 	ldw	r2,-20(fp)
 4012b20:	10c00185 	stb	r3,6(r2)
 4012b24:	00800044 	movi	r2,1
 4012b28:	e0bfff15 	stw	r2,-4(fp)
 4012b2c:	00004c06 	br	4012c60 <f_read+0x408>
#else
            if ((fp->flag & FA__DIRTY) && fp->dsect - sect < cc)
               mem_cpy(rbuff + ((fp->dsect - sect) * SS(fp->fs)), fp->buf, SS(fp->fs));
#endif
#endif
            rcnt = SS(fp->fs) * cc;       /* Number of bytes transferred */
 4012b30:	e0bff517 	ldw	r2,-44(fp)
 4012b34:	1004927a 	slli	r2,r2,9
 4012b38:	e0bff615 	stw	r2,-40(fp)
            continue;
 4012b3c:	00003006 	br	4012c00 <f_read+0x3a8>
         }
#if !_FS_TINY
         if (fp->dsect != sect) {         /* Load data sector if not in cache */
 4012b40:	e0bffb17 	ldw	r2,-20(fp)
 4012b44:	10c00617 	ldw	r3,24(r2)
 4012b48:	e0bff817 	ldw	r2,-32(fp)
 4012b4c:	18801526 	beq	r3,r2,4012ba4 <f_read+0x34c>
               if (disk_write(fp->fs->drv, fp->buf, fp->dsect, 1) != RES_OK)
                  ABORT(fp->fs, FR_DISK_ERR);
               fp->flag &= ~FA__DIRTY;
            }
#endif
            if (disk_read(fp->fs->drv, fp->buf, sect, 1) != RES_OK)  /* Fill sector cache */
 4012b50:	e0bffb17 	ldw	r2,-20(fp)
 4012b54:	10800017 	ldw	r2,0(r2)
 4012b58:	10800043 	ldbu	r2,1(r2)
 4012b5c:	11003fcc 	andi	r4,r2,255
 4012b60:	e0bffb17 	ldw	r2,-20(fp)
 4012b64:	11400704 	addi	r5,r2,28
 4012b68:	e1bff817 	ldw	r6,-32(fp)
 4012b6c:	01c00044 	movi	r7,1
 4012b70:	4013fcc0 	call	4013fcc <ffs_DiskIORead>
 4012b74:	1005003a 	cmpeq	r2,r2,zero
 4012b78:	10000a1e 	bne	r2,zero,4012ba4 <f_read+0x34c>
               ABORT(fp->fs, FR_DISK_ERR);
 4012b7c:	e0bffb17 	ldw	r2,-20(fp)
 4012b80:	10c00183 	ldbu	r3,6(r2)
 4012b84:	00bfe004 	movi	r2,-128
 4012b88:	1884b03a 	or	r2,r3,r2
 4012b8c:	1007883a 	mov	r3,r2
 4012b90:	e0bffb17 	ldw	r2,-20(fp)
 4012b94:	10c00185 	stb	r3,6(r2)
 4012b98:	00800044 	movi	r2,1
 4012b9c:	e0bfff15 	stw	r2,-4(fp)
 4012ba0:	00002f06 	br	4012c60 <f_read+0x408>
         }
#endif
         fp->dsect = sect;
 4012ba4:	e0fffb17 	ldw	r3,-20(fp)
 4012ba8:	e0bff817 	ldw	r2,-32(fp)
 4012bac:	18800615 	stw	r2,24(r3)
      }
      rcnt = SS(fp->fs) - (fp->fptr % SS(fp->fs)); /* Get partial sector data from sector buffer */
 4012bb0:	e0bffb17 	ldw	r2,-20(fp)
 4012bb4:	10800217 	ldw	r2,8(r2)
 4012bb8:	10c07fcc 	andi	r3,r2,511
 4012bbc:	00808004 	movi	r2,512
 4012bc0:	10c5c83a 	sub	r2,r2,r3
 4012bc4:	e0bff615 	stw	r2,-40(fp)
      if (rcnt > btr) rcnt = btr;
 4012bc8:	e0fff617 	ldw	r3,-40(fp)
 4012bcc:	e0bffd17 	ldw	r2,-12(fp)
 4012bd0:	10c0022e 	bgeu	r2,r3,4012bdc <f_read+0x384>
 4012bd4:	e0bffd17 	ldw	r2,-12(fp)
 4012bd8:	e0bff615 	stw	r2,-40(fp)
#if _FS_TINY
      if (move_window(fp->fs, fp->dsect))    /* Move sector window */
         ABORT(fp->fs, FR_DISK_ERR);
      mem_cpy(rbuff, &fp->fs->win[fp->fptr % SS(fp->fs)], rcnt);  /* Pick partial sector */
#else
      mem_cpy(rbuff, &fp->buf[fp->fptr % SS(fp->fs)], rcnt);   /* Pick partial sector */
 4012bdc:	e0bffb17 	ldw	r2,-20(fp)
 4012be0:	10c00704 	addi	r3,r2,28
 4012be4:	e0bffb17 	ldw	r2,-20(fp)
 4012be8:	10800217 	ldw	r2,8(r2)
 4012bec:	10807fcc 	andi	r2,r2,511
 4012bf0:	188b883a 	add	r5,r3,r2
 4012bf4:	e13ff317 	ldw	r4,-52(fp)
 4012bf8:	e1bff617 	ldw	r6,-40(fp)
 4012bfc:	40108840 	call	4010884 <mem_cpy>
      LEAVE_FF(fp->fs, FR_DENIED);
   remain = fp->fsize - fp->fptr;
   if (btr > remain) btr = (FFS_U32)remain;     /* Truncate btr by remaining bytes */

   for ( ;  btr;                       /* Repeat until all data read */
      rbuff += rcnt, fp->fptr += rcnt, *br += rcnt, btr -= rcnt) {
 4012c00:	e0fff617 	ldw	r3,-40(fp)
 4012c04:	e0bff317 	ldw	r2,-52(fp)
 4012c08:	10c5883a 	add	r2,r2,r3
 4012c0c:	e0bff315 	stw	r2,-52(fp)
 4012c10:	e0bffb17 	ldw	r2,-20(fp)
 4012c14:	10c00217 	ldw	r3,8(r2)
 4012c18:	e0bff617 	ldw	r2,-40(fp)
 4012c1c:	1887883a 	add	r3,r3,r2
 4012c20:	e0bffb17 	ldw	r2,-20(fp)
 4012c24:	10c00215 	stw	r3,8(r2)
 4012c28:	e0bffe17 	ldw	r2,-8(fp)
 4012c2c:	10c00017 	ldw	r3,0(r2)
 4012c30:	e0bff617 	ldw	r2,-40(fp)
 4012c34:	1887883a 	add	r3,r3,r2
 4012c38:	e0bffe17 	ldw	r2,-8(fp)
 4012c3c:	10c00015 	stw	r3,0(r2)
 4012c40:	e0fffd17 	ldw	r3,-12(fp)
 4012c44:	e0bff617 	ldw	r2,-40(fp)
 4012c48:	1885c83a 	sub	r2,r3,r2
 4012c4c:	e0bffd15 	stw	r2,-12(fp)
   if (!(fp->flag & FA_READ))                /* Check access mode */
      LEAVE_FF(fp->fs, FR_DENIED);
   remain = fp->fsize - fp->fptr;
   if (btr > remain) btr = (FFS_U32)remain;     /* Truncate btr by remaining bytes */

   for ( ;  btr;                       /* Repeat until all data read */
 4012c50:	e0bffd17 	ldw	r2,-12(fp)
 4012c54:	1004c03a 	cmpne	r2,r2,zero
 4012c58:	103f371e 	bne	r2,zero,4012938 <f_read+0xe0>
#else
      mem_cpy(rbuff, &fp->buf[fp->fptr % SS(fp->fs)], rcnt);   /* Pick partial sector */
#endif
   }

   LEAVE_FF(fp->fs, FR_OK);
 4012c5c:	e03fff15 	stw	zero,-4(fp)
 4012c60:	e0bfff17 	ldw	r2,-4(fp)
}
 4012c64:	e037883a 	mov	sp,fp
 4012c68:	dfc00117 	ldw	ra,4(sp)
 4012c6c:	df000017 	ldw	fp,0(sp)
 4012c70:	dec00204 	addi	sp,sp,8
 4012c74:	f800283a 	ret

04012c78 <f_close>:
/*-----------------------------------------------------------------------*/

FRESULT f_close (
   FIL *fp     /* Pointer to the file object to be closed */
)
{
 4012c78:	defffb04 	addi	sp,sp,-20
 4012c7c:	dfc00415 	stw	ra,16(sp)
 4012c80:	df000315 	stw	fp,12(sp)
 4012c84:	df000304 	addi	fp,sp,12
 4012c88:	e13fff15 	stw	r4,-4(fp)
   FRESULT res;

#if _FS_READONLY
   FATFS *fs = fp->fs;
 4012c8c:	e0bfff17 	ldw	r2,-4(fp)
 4012c90:	10800017 	ldw	r2,0(r2)
 4012c94:	e0bffd15 	stw	r2,-12(fp)
   res = validate(fs, fp->id);
 4012c98:	e0bfff17 	ldw	r2,-4(fp)
 4012c9c:	1080010b 	ldhu	r2,4(r2)
 4012ca0:	117fffcc 	andi	r5,r2,65535
 4012ca4:	e13ffd17 	ldw	r4,-12(fp)
 4012ca8:	401252c0 	call	401252c <validate>
 4012cac:	e0bffe15 	stw	r2,-8(fp)
   if (res == FR_OK) fp->fs = 0; /* Discard file object */
 4012cb0:	e0bffe17 	ldw	r2,-8(fp)
 4012cb4:	1004c03a 	cmpne	r2,r2,zero
 4012cb8:	1000021e 	bne	r2,zero,4012cc4 <f_close+0x4c>
 4012cbc:	e0bfff17 	ldw	r2,-4(fp)
 4012cc0:	10000015 	stw	zero,0(r2)
   LEAVE_FF(fs, res);
 4012cc4:	e0bffe17 	ldw	r2,-8(fp)
   }
#endif
   if (res == FR_OK) fp->fs = 0; /* Discard file object */
   return res;
#endif
}
 4012cc8:	e037883a 	mov	sp,fp
 4012ccc:	dfc00117 	ldw	ra,4(sp)
 4012cd0:	df000017 	ldw	fp,0(sp)
 4012cd4:	dec00204 	addi	sp,sp,8
 4012cd8:	f800283a 	ret

04012cdc <f_lseek>:

FRESULT f_lseek (
   FIL *fp,          /* Pointer to the file object */
   FFS_U32 ofs      /* File pointer from top of file */
)
{
 4012cdc:	defff504 	addi	sp,sp,-44
 4012ce0:	dfc00a15 	stw	ra,40(sp)
 4012ce4:	df000915 	stw	fp,36(sp)
 4012ce8:	dc000815 	stw	r16,32(sp)
 4012cec:	df000804 	addi	fp,sp,32
 4012cf0:	e13ffd15 	stw	r4,-12(fp)
 4012cf4:	e17ffe15 	stw	r5,-8(fp)
   FRESULT res;


   res = validate(fp->fs, fp->id);     /* Check validity of the object */
 4012cf8:	e0bffd17 	ldw	r2,-12(fp)
 4012cfc:	11000017 	ldw	r4,0(r2)
 4012d00:	e0bffd17 	ldw	r2,-12(fp)
 4012d04:	1080010b 	ldhu	r2,4(r2)
 4012d08:	117fffcc 	andi	r5,r2,65535
 4012d0c:	401252c0 	call	401252c <validate>
 4012d10:	e0bffc15 	stw	r2,-16(fp)
   if (res != FR_OK) LEAVE_FF(fp->fs, res);
 4012d14:	e0bffc17 	ldw	r2,-16(fp)
 4012d18:	1005003a 	cmpeq	r2,r2,zero
 4012d1c:	1000031e 	bne	r2,zero,4012d2c <f_lseek+0x50>
 4012d20:	e0bffc17 	ldw	r2,-16(fp)
 4012d24:	e0bfff15 	stw	r2,-4(fp)
 4012d28:	0000c006 	br	401302c <f_lseek+0x350>
   if (fp->flag & FA__ERROR)        /* Check abort flag */
 4012d2c:	e0bffd17 	ldw	r2,-12(fp)
 4012d30:	10800183 	ldbu	r2,6(r2)
 4012d34:	10803fcc 	andi	r2,r2,255
 4012d38:	1080201c 	xori	r2,r2,128
 4012d3c:	10bfe004 	addi	r2,r2,-128
 4012d40:	1004403a 	cmpge	r2,r2,zero
 4012d44:	1000031e 	bne	r2,zero,4012d54 <f_lseek+0x78>
      LEAVE_FF(fp->fs, FR_INT_ERR);
 4012d48:	00800084 	movi	r2,2
 4012d4c:	e0bfff15 	stw	r2,-4(fp)
 4012d50:	0000b606 	br	401302c <f_lseek+0x350>

   /* Normal Seek */
   {
      FFS_U32 clst, bcs, nsect, ifptr;

      if (ofs > fp->fsize              /* In read-only mode, clip offset with the file size */
 4012d54:	e0bffd17 	ldw	r2,-12(fp)
 4012d58:	10c00317 	ldw	r3,12(r2)
 4012d5c:	e0bffe17 	ldw	r2,-8(fp)
 4012d60:	1880032e 	bgeu	r3,r2,4012d70 <f_lseek+0x94>
#if !_FS_READONLY
          && !(fp->flag & FA_WRITE)
#endif
         ) ofs = fp->fsize;
 4012d64:	e0bffd17 	ldw	r2,-12(fp)
 4012d68:	10800317 	ldw	r2,12(r2)
 4012d6c:	e0bffe15 	stw	r2,-8(fp)

      ifptr = fp->fptr;
 4012d70:	e0bffd17 	ldw	r2,-12(fp)
 4012d74:	10800217 	ldw	r2,8(r2)
 4012d78:	e0bff815 	stw	r2,-32(fp)
      fp->fptr = nsect = 0;
 4012d7c:	e03ff915 	stw	zero,-28(fp)
 4012d80:	e0fffd17 	ldw	r3,-12(fp)
 4012d84:	e0bff917 	ldw	r2,-28(fp)
 4012d88:	18800215 	stw	r2,8(r3)
      if (ofs) {
 4012d8c:	e0bffe17 	ldw	r2,-8(fp)
 4012d90:	1005003a 	cmpeq	r2,r2,zero
 4012d94:	1000821e 	bne	r2,zero,4012fa0 <f_lseek+0x2c4>
         bcs = (FFS_U32)fp->fs->csize * SS(fp->fs);  /* Cluster size (byte) */
 4012d98:	e0bffd17 	ldw	r2,-12(fp)
 4012d9c:	10800017 	ldw	r2,0(r2)
 4012da0:	10800083 	ldbu	r2,2(r2)
 4012da4:	10803fcc 	andi	r2,r2,255
 4012da8:	1004927a 	slli	r2,r2,9
 4012dac:	e0bffa15 	stw	r2,-24(fp)
         if (ifptr > 0 &&
 4012db0:	e0bff817 	ldw	r2,-32(fp)
 4012db4:	1005003a 	cmpeq	r2,r2,zero
 4012db8:	10001a1e 	bne	r2,zero,4012e24 <f_lseek+0x148>
 4012dbc:	e0bffe17 	ldw	r2,-8(fp)
 4012dc0:	113fffc4 	addi	r4,r2,-1
 4012dc4:	e17ffa17 	ldw	r5,-24(fp)
 4012dc8:	4014ce40 	call	4014ce4 <__udivsi3>
 4012dcc:	1021883a 	mov	r16,r2
 4012dd0:	e0bff817 	ldw	r2,-32(fp)
 4012dd4:	113fffc4 	addi	r4,r2,-1
 4012dd8:	e17ffa17 	ldw	r5,-24(fp)
 4012ddc:	4014ce40 	call	4014ce4 <__udivsi3>
 4012de0:	80801036 	bltu	r16,r2,4012e24 <f_lseek+0x148>
            (ofs - 1) / bcs >= (ifptr - 1) / bcs) {   /* When seek to same or following cluster, */
            fp->fptr = (ifptr - 1) & ~(bcs - 1);   /* start from the current cluster */
 4012de4:	e0bff817 	ldw	r2,-32(fp)
 4012de8:	10ffffc4 	addi	r3,r2,-1
 4012dec:	e0bffa17 	ldw	r2,-24(fp)
 4012df0:	0085c83a 	sub	r2,zero,r2
 4012df4:	1886703a 	and	r3,r3,r2
 4012df8:	e0bffd17 	ldw	r2,-12(fp)
 4012dfc:	10c00215 	stw	r3,8(r2)
            ofs -= fp->fptr;
 4012e00:	e0bffd17 	ldw	r2,-12(fp)
 4012e04:	10c00217 	ldw	r3,8(r2)
 4012e08:	e0bffe17 	ldw	r2,-8(fp)
 4012e0c:	10c5c83a 	sub	r2,r2,r3
 4012e10:	e0bffe15 	stw	r2,-8(fp)
            clst = fp->clust;
 4012e14:	e0bffd17 	ldw	r2,-12(fp)
 4012e18:	10800517 	ldw	r2,20(r2)
 4012e1c:	e0bffb15 	stw	r2,-20(fp)

      ifptr = fp->fptr;
      fp->fptr = nsect = 0;
      if (ofs) {
         bcs = (FFS_U32)fp->fs->csize * SS(fp->fs);  /* Cluster size (byte) */
         if (ifptr > 0 &&
 4012e20:	00000606 	br	4012e3c <f_lseek+0x160>
            (ofs - 1) / bcs >= (ifptr - 1) / bcs) {   /* When seek to same or following cluster, */
            fp->fptr = (ifptr - 1) & ~(bcs - 1);   /* start from the current cluster */
            ofs -= fp->fptr;
            clst = fp->clust;
         } else {                         /* When seek to back cluster, */
            clst = fp->sclust;                  /* start from the first cluster */
 4012e24:	e0bffd17 	ldw	r2,-12(fp)
 4012e28:	10800417 	ldw	r2,16(r2)
 4012e2c:	e0bffb15 	stw	r2,-20(fp)
               if (clst == 1) ABORT(fp->fs, FR_INT_ERR);
               if (clst == 0xFFFFFFFF) ABORT(fp->fs, FR_DISK_ERR);
               fp->sclust = clst;
            }
#endif
            fp->clust = clst;
 4012e30:	e0fffd17 	ldw	r3,-12(fp)
 4012e34:	e0bffb17 	ldw	r2,-20(fp)
 4012e38:	18800515 	stw	r2,20(r3)
         }
         if (clst != 0) {
 4012e3c:	e0bffb17 	ldw	r2,-20(fp)
 4012e40:	1005003a 	cmpeq	r2,r2,zero
 4012e44:	1000561e 	bne	r2,zero,4012fa0 <f_lseek+0x2c4>
            while (ofs > bcs) {                 /* Cluster following loop */
 4012e48:	00003106 	br	4012f10 <f_lseek+0x234>
                  if (clst == 0) {           /* When disk gets full, clip file size */
                     ofs = bcs; break;
                  }
               } else
#endif
                  clst = get_fat(fp->fs, clst); /* Follow cluster chain if not in write mode */
 4012e4c:	e0bffd17 	ldw	r2,-12(fp)
 4012e50:	11000017 	ldw	r4,0(r2)
 4012e54:	e17ffb17 	ldw	r5,-20(fp)
 4012e58:	4010ba80 	call	4010ba8 <get_fat>
 4012e5c:	e0bffb15 	stw	r2,-20(fp)
               if (clst == 0xFFFFFFFF) ABORT(fp->fs, FR_DISK_ERR);
 4012e60:	e0bffb17 	ldw	r2,-20(fp)
 4012e64:	10bfffd8 	cmpnei	r2,r2,-1
 4012e68:	10000a1e 	bne	r2,zero,4012e94 <f_lseek+0x1b8>
 4012e6c:	e0bffd17 	ldw	r2,-12(fp)
 4012e70:	10c00183 	ldbu	r3,6(r2)
 4012e74:	00bfe004 	movi	r2,-128
 4012e78:	1884b03a 	or	r2,r3,r2
 4012e7c:	1007883a 	mov	r3,r2
 4012e80:	e0bffd17 	ldw	r2,-12(fp)
 4012e84:	10c00185 	stb	r3,6(r2)
 4012e88:	00800044 	movi	r2,1
 4012e8c:	e0bfff15 	stw	r2,-4(fp)
 4012e90:	00006606 	br	401302c <f_lseek+0x350>
               if (clst <= 1 || clst >= fp->fs->n_fatent) ABORT(fp->fs, FR_INT_ERR);
 4012e94:	e0bffb17 	ldw	r2,-20(fp)
 4012e98:	108000b0 	cmpltui	r2,r2,2
 4012e9c:	1000051e 	bne	r2,zero,4012eb4 <f_lseek+0x1d8>
 4012ea0:	e0bffd17 	ldw	r2,-12(fp)
 4012ea4:	10800017 	ldw	r2,0(r2)
 4012ea8:	10c00317 	ldw	r3,12(r2)
 4012eac:	e0bffb17 	ldw	r2,-20(fp)
 4012eb0:	10c00a36 	bltu	r2,r3,4012edc <f_lseek+0x200>
 4012eb4:	e0bffd17 	ldw	r2,-12(fp)
 4012eb8:	10c00183 	ldbu	r3,6(r2)
 4012ebc:	00bfe004 	movi	r2,-128
 4012ec0:	1884b03a 	or	r2,r3,r2
 4012ec4:	1007883a 	mov	r3,r2
 4012ec8:	e0bffd17 	ldw	r2,-12(fp)
 4012ecc:	10c00185 	stb	r3,6(r2)
 4012ed0:	00800084 	movi	r2,2
 4012ed4:	e0bfff15 	stw	r2,-4(fp)
 4012ed8:	00005406 	br	401302c <f_lseek+0x350>
               fp->clust = clst;
 4012edc:	e0fffd17 	ldw	r3,-12(fp)
 4012ee0:	e0bffb17 	ldw	r2,-20(fp)
 4012ee4:	18800515 	stw	r2,20(r3)
               fp->fptr += bcs;
 4012ee8:	e0bffd17 	ldw	r2,-12(fp)
 4012eec:	10c00217 	ldw	r3,8(r2)
 4012ef0:	e0bffa17 	ldw	r2,-24(fp)
 4012ef4:	1887883a 	add	r3,r3,r2
 4012ef8:	e0bffd17 	ldw	r2,-12(fp)
 4012efc:	10c00215 	stw	r3,8(r2)
               ofs -= bcs;
 4012f00:	e0fffe17 	ldw	r3,-8(fp)
 4012f04:	e0bffa17 	ldw	r2,-24(fp)
 4012f08:	1885c83a 	sub	r2,r3,r2
 4012f0c:	e0bffe15 	stw	r2,-8(fp)
            }
#endif
            fp->clust = clst;
         }
         if (clst != 0) {
            while (ofs > bcs) {                 /* Cluster following loop */
 4012f10:	e0fffe17 	ldw	r3,-8(fp)
 4012f14:	e0bffa17 	ldw	r2,-24(fp)
 4012f18:	10ffcc36 	bltu	r2,r3,4012e4c <f_lseek+0x170>
               if (clst <= 1 || clst >= fp->fs->n_fatent) ABORT(fp->fs, FR_INT_ERR);
               fp->clust = clst;
               fp->fptr += bcs;
               ofs -= bcs;
            }
            fp->fptr += ofs;
 4012f1c:	e0bffd17 	ldw	r2,-12(fp)
 4012f20:	10c00217 	ldw	r3,8(r2)
 4012f24:	e0bffe17 	ldw	r2,-8(fp)
 4012f28:	1887883a 	add	r3,r3,r2
 4012f2c:	e0bffd17 	ldw	r2,-12(fp)
 4012f30:	10c00215 	stw	r3,8(r2)
            if (ofs % SS(fp->fs)) {
 4012f34:	e0bffe17 	ldw	r2,-8(fp)
 4012f38:	10807fcc 	andi	r2,r2,511
 4012f3c:	1005003a 	cmpeq	r2,r2,zero
 4012f40:	1000171e 	bne	r2,zero,4012fa0 <f_lseek+0x2c4>
               nsect = clust2sect(fp->fs, clst);   /* Current sector */
 4012f44:	e0bffd17 	ldw	r2,-12(fp)
 4012f48:	11000017 	ldw	r4,0(r2)
 4012f4c:	e17ffb17 	ldw	r5,-20(fp)
 4012f50:	4010b280 	call	4010b28 <clust2sect>
 4012f54:	e0bff915 	stw	r2,-28(fp)
               if (!nsect) ABORT(fp->fs, FR_INT_ERR);
 4012f58:	e0bff917 	ldw	r2,-28(fp)
 4012f5c:	1004c03a 	cmpne	r2,r2,zero
 4012f60:	10000a1e 	bne	r2,zero,4012f8c <f_lseek+0x2b0>
 4012f64:	e0bffd17 	ldw	r2,-12(fp)
 4012f68:	10c00183 	ldbu	r3,6(r2)
 4012f6c:	00bfe004 	movi	r2,-128
 4012f70:	1884b03a 	or	r2,r3,r2
 4012f74:	1007883a 	mov	r3,r2
 4012f78:	e0bffd17 	ldw	r2,-12(fp)
 4012f7c:	10c00185 	stb	r3,6(r2)
 4012f80:	00800084 	movi	r2,2
 4012f84:	e0bfff15 	stw	r2,-4(fp)
 4012f88:	00002806 	br	401302c <f_lseek+0x350>
               nsect += ofs / SS(fp->fs);
 4012f8c:	e0bffe17 	ldw	r2,-8(fp)
 4012f90:	1006d27a 	srli	r3,r2,9
 4012f94:	e0bff917 	ldw	r2,-28(fp)
 4012f98:	10c5883a 	add	r2,r2,r3
 4012f9c:	e0bff915 	stw	r2,-28(fp)
            }
         }
      }
      if (fp->fptr % SS(fp->fs) && nsect != fp->dsect) { /* Fill sector cache if needed */
 4012fa0:	e0bffd17 	ldw	r2,-12(fp)
 4012fa4:	10800217 	ldw	r2,8(r2)
 4012fa8:	10807fcc 	andi	r2,r2,511
 4012fac:	1005003a 	cmpeq	r2,r2,zero
 4012fb0:	10001c1e 	bne	r2,zero,4013024 <f_lseek+0x348>
 4012fb4:	e0bffd17 	ldw	r2,-12(fp)
 4012fb8:	10c00617 	ldw	r3,24(r2)
 4012fbc:	e0bff917 	ldw	r2,-28(fp)
 4012fc0:	18801826 	beq	r3,r2,4013024 <f_lseek+0x348>
            if (disk_write(fp->fs->drv, fp->buf, fp->dsect, 1) != RES_OK)
               ABORT(fp->fs, FR_DISK_ERR);
            fp->flag &= ~FA__DIRTY;
         }
#endif
         if (disk_read(fp->fs->drv, fp->buf, nsect, 1) != RES_OK) /* Fill sector cache */
 4012fc4:	e0bffd17 	ldw	r2,-12(fp)
 4012fc8:	10800017 	ldw	r2,0(r2)
 4012fcc:	10800043 	ldbu	r2,1(r2)
 4012fd0:	11003fcc 	andi	r4,r2,255
 4012fd4:	e0bffd17 	ldw	r2,-12(fp)
 4012fd8:	11400704 	addi	r5,r2,28
 4012fdc:	e1bff917 	ldw	r6,-28(fp)
 4012fe0:	01c00044 	movi	r7,1
 4012fe4:	4013fcc0 	call	4013fcc <ffs_DiskIORead>
 4012fe8:	1005003a 	cmpeq	r2,r2,zero
 4012fec:	10000a1e 	bne	r2,zero,4013018 <f_lseek+0x33c>
            ABORT(fp->fs, FR_DISK_ERR);
 4012ff0:	e0bffd17 	ldw	r2,-12(fp)
 4012ff4:	10c00183 	ldbu	r3,6(r2)
 4012ff8:	00bfe004 	movi	r2,-128
 4012ffc:	1884b03a 	or	r2,r3,r2
 4013000:	1007883a 	mov	r3,r2
 4013004:	e0bffd17 	ldw	r2,-12(fp)
 4013008:	10c00185 	stb	r3,6(r2)
 401300c:	00800044 	movi	r2,1
 4013010:	e0bfff15 	stw	r2,-4(fp)
 4013014:	00000506 	br	401302c <f_lseek+0x350>
#endif
         fp->dsect = nsect;
 4013018:	e0fffd17 	ldw	r3,-12(fp)
 401301c:	e0bff917 	ldw	r2,-28(fp)
 4013020:	18800615 	stw	r2,24(r3)
         fp->flag |= FA__WRITTEN;
      }
#endif
   }

   LEAVE_FF(fp->fs, res);
 4013024:	e0bffc17 	ldw	r2,-16(fp)
 4013028:	e0bfff15 	stw	r2,-4(fp)
 401302c:	e0bfff17 	ldw	r2,-4(fp)
}
 4013030:	e037883a 	mov	sp,fp
 4013034:	dfc00217 	ldw	ra,8(sp)
 4013038:	df000117 	ldw	fp,4(sp)
 401303c:	dc000017 	ldw	r16,0(sp)
 4013040:	dec00304 	addi	sp,sp,12
 4013044:	f800283a 	ret

04013048 <f_opendir>:

FRESULT f_opendir (
   DIR *dj,       /* Pointer to directory object to create */
   const TCHAR *path /* Pointer to the directory path */
)
{
 4013048:	defff804 	addi	sp,sp,-32
 401304c:	dfc00715 	stw	ra,28(sp)
 4013050:	df000615 	stw	fp,24(sp)
 4013054:	df000604 	addi	fp,sp,24
 4013058:	e13ffe15 	stw	r4,-8(fp)
 401305c:	e17fff15 	stw	r5,-4(fp)
   FRESULT res;
   DEF_NAMEBUF;


   res = chk_mounted(&path, &dj->fs, 0);
 4013060:	e17ffe17 	ldw	r5,-8(fp)
 4013064:	e13fff04 	addi	r4,fp,-4
 4013068:	000d883a 	mov	r6,zero
 401306c:	4011d080 	call	4011d08 <chk_mounted>
 4013070:	e0bffa15 	stw	r2,-24(fp)
   if (res == FR_OK) {
 4013074:	e0bffa17 	ldw	r2,-24(fp)
 4013078:	1004c03a 	cmpne	r2,r2,zero
 401307c:	10004a1e 	bne	r2,zero,40131a8 <f_opendir+0x160>
      INIT_BUF(*dj);
 4013080:	e0fffe17 	ldw	r3,-8(fp)
 4013084:	e0bffb04 	addi	r2,fp,-20
 4013088:	18800615 	stw	r2,24(r3)
      res = follow_path(dj, path);        /* Follow the path to the directory */
 401308c:	e17fff17 	ldw	r5,-4(fp)
 4013090:	e13ffe17 	ldw	r4,-8(fp)
 4013094:	40119640 	call	4011964 <follow_path>
 4013098:	e0bffa15 	stw	r2,-24(fp)
      FREE_BUF();
      if (res == FR_OK) {                 /* Follow completed */
 401309c:	e0bffa17 	ldw	r2,-24(fp)
 40130a0:	1004c03a 	cmpne	r2,r2,zero
 40130a4:	10003b1e 	bne	r2,zero,4013194 <f_opendir+0x14c>
         if (dj->dir) {                /* It is not the root dir */
 40130a8:	e0bffe17 	ldw	r2,-8(fp)
 40130ac:	10800517 	ldw	r2,20(r2)
 40130b0:	1005003a 	cmpeq	r2,r2,zero
 40130b4:	10002b1e 	bne	r2,zero,4013164 <f_opendir+0x11c>
            if (dj->dir[DIR_Attr] & AM_DIR) {   /* The object is a directory */
 40130b8:	e0bffe17 	ldw	r2,-8(fp)
 40130bc:	10800517 	ldw	r2,20(r2)
 40130c0:	108002c4 	addi	r2,r2,11
 40130c4:	10800003 	ldbu	r2,0(r2)
 40130c8:	10803fcc 	andi	r2,r2,255
 40130cc:	1080040c 	andi	r2,r2,16
 40130d0:	1005003a 	cmpeq	r2,r2,zero
 40130d4:	1000211e 	bne	r2,zero,401315c <f_opendir+0x114>
               dj->sclust = LD_CLUST(dj->dir);
 40130d8:	e0bffe17 	ldw	r2,-8(fp)
 40130dc:	10800517 	ldw	r2,20(r2)
 40130e0:	10800544 	addi	r2,r2,21
 40130e4:	10800003 	ldbu	r2,0(r2)
 40130e8:	10803fcc 	andi	r2,r2,255
 40130ec:	1004923a 	slli	r2,r2,8
 40130f0:	1007883a 	mov	r3,r2
 40130f4:	e0bffe17 	ldw	r2,-8(fp)
 40130f8:	10800517 	ldw	r2,20(r2)
 40130fc:	10800504 	addi	r2,r2,20
 4013100:	10800003 	ldbu	r2,0(r2)
 4013104:	10803fcc 	andi	r2,r2,255
 4013108:	1884b03a 	or	r2,r3,r2
 401310c:	10bfffcc 	andi	r2,r2,65535
 4013110:	1008943a 	slli	r4,r2,16
 4013114:	e0bffe17 	ldw	r2,-8(fp)
 4013118:	10800517 	ldw	r2,20(r2)
 401311c:	108006c4 	addi	r2,r2,27
 4013120:	10800003 	ldbu	r2,0(r2)
 4013124:	10803fcc 	andi	r2,r2,255
 4013128:	1004923a 	slli	r2,r2,8
 401312c:	1007883a 	mov	r3,r2
 4013130:	e0bffe17 	ldw	r2,-8(fp)
 4013134:	10800517 	ldw	r2,20(r2)
 4013138:	10800684 	addi	r2,r2,26
 401313c:	10800003 	ldbu	r2,0(r2)
 4013140:	10803fcc 	andi	r2,r2,255
 4013144:	1884b03a 	or	r2,r3,r2
 4013148:	10bfffcc 	andi	r2,r2,65535
 401314c:	2086b03a 	or	r3,r4,r2
 4013150:	e0bffe17 	ldw	r2,-8(fp)
 4013154:	10c00215 	stw	r3,8(r2)
 4013158:	00000206 	br	4013164 <f_opendir+0x11c>
            } else {                /* The object is not a directory */
               res = FR_NO_PATH;
 401315c:	00800144 	movi	r2,5
 4013160:	e0bffa15 	stw	r2,-24(fp)
            }
         }
         if (res == FR_OK) {
 4013164:	e0bffa17 	ldw	r2,-24(fp)
 4013168:	1004c03a 	cmpne	r2,r2,zero
 401316c:	1000091e 	bne	r2,zero,4013194 <f_opendir+0x14c>
            dj->id = dj->fs->id;
 4013170:	e0bffe17 	ldw	r2,-8(fp)
 4013174:	10800017 	ldw	r2,0(r2)
 4013178:	10c0018b 	ldhu	r3,6(r2)
 401317c:	e0bffe17 	ldw	r2,-8(fp)
 4013180:	10c0010d 	sth	r3,4(r2)
            res = dir_sdi(dj, 0);         /* Rewind dir */
 4013184:	e13ffe17 	ldw	r4,-8(fp)
 4013188:	000b883a 	mov	r5,zero
 401318c:	4010e5c0 	call	4010e5c <dir_sdi>
 4013190:	e0bffa15 	stw	r2,-24(fp)
         }
      }
      if (res == FR_NO_FILE) res = FR_NO_PATH;
 4013194:	e0bffa17 	ldw	r2,-24(fp)
 4013198:	10800118 	cmpnei	r2,r2,4
 401319c:	1000021e 	bne	r2,zero,40131a8 <f_opendir+0x160>
 40131a0:	00800144 	movi	r2,5
 40131a4:	e0bffa15 	stw	r2,-24(fp)
   }

   LEAVE_FF(dj->fs, res);
 40131a8:	e0bffa17 	ldw	r2,-24(fp)
}
 40131ac:	e037883a 	mov	sp,fp
 40131b0:	dfc00117 	ldw	ra,4(sp)
 40131b4:	df000017 	ldw	fp,0(sp)
 40131b8:	dec00204 	addi	sp,sp,8
 40131bc:	f800283a 	ret

040131c0 <f_readdir>:

FRESULT f_readdir (
   DIR *dj,       /* Pointer to the open directory object */
   FILINFO *fno      /* Pointer to file information to return */
)
{
 40131c0:	defff804 	addi	sp,sp,-32
 40131c4:	dfc00715 	stw	ra,28(sp)
 40131c8:	df000615 	stw	fp,24(sp)
 40131cc:	df000604 	addi	fp,sp,24
 40131d0:	e13ffe15 	stw	r4,-8(fp)
 40131d4:	e17fff15 	stw	r5,-4(fp)
   FRESULT res;
   DEF_NAMEBUF;


   res = validate(dj->fs, dj->id);        /* Check validity of the object */
 40131d8:	e0bffe17 	ldw	r2,-8(fp)
 40131dc:	11000017 	ldw	r4,0(r2)
 40131e0:	e0bffe17 	ldw	r2,-8(fp)
 40131e4:	1080010b 	ldhu	r2,4(r2)
 40131e8:	117fffcc 	andi	r5,r2,65535
 40131ec:	401252c0 	call	401252c <validate>
 40131f0:	e0bffa15 	stw	r2,-24(fp)
   if (res == FR_OK) {
 40131f4:	e0bffa17 	ldw	r2,-24(fp)
 40131f8:	1004c03a 	cmpne	r2,r2,zero
 40131fc:	1000241e 	bne	r2,zero,4013290 <f_readdir+0xd0>
      if (!fno) {
 4013200:	e0bfff17 	ldw	r2,-4(fp)
 4013204:	1004c03a 	cmpne	r2,r2,zero
 4013208:	1000051e 	bne	r2,zero,4013220 <f_readdir+0x60>
         res = dir_sdi(dj, 0);         /* Rewind the directory object */
 401320c:	e13ffe17 	ldw	r4,-8(fp)
 4013210:	000b883a 	mov	r5,zero
 4013214:	4010e5c0 	call	4010e5c <dir_sdi>
 4013218:	e0bffa15 	stw	r2,-24(fp)
 401321c:	00001c06 	br	4013290 <f_readdir+0xd0>
      } else {
         INIT_BUF(*dj);
 4013220:	e0fffe17 	ldw	r3,-8(fp)
 4013224:	e0bffb04 	addi	r2,fp,-20
 4013228:	18800615 	stw	r2,24(r3)
         res = dir_read(dj);           /* Read an directory item */
 401322c:	e13ffe17 	ldw	r4,-8(fp)
 4013230:	401130c0 	call	401130c <dir_read>
 4013234:	e0bffa15 	stw	r2,-24(fp)
         if (res == FR_NO_FILE) {      /* Reached end of dir */
 4013238:	e0bffa17 	ldw	r2,-24(fp)
 401323c:	10800118 	cmpnei	r2,r2,4
 4013240:	1000031e 	bne	r2,zero,4013250 <f_readdir+0x90>
            dj->sect = 0;
 4013244:	e0bffe17 	ldw	r2,-8(fp)
 4013248:	10000415 	stw	zero,16(r2)
            res = FR_OK;
 401324c:	e03ffa15 	stw	zero,-24(fp)
         }
         if (res == FR_OK) {           /* A valid entry is found */
 4013250:	e0bffa17 	ldw	r2,-24(fp)
 4013254:	1004c03a 	cmpne	r2,r2,zero
 4013258:	10000d1e 	bne	r2,zero,4013290 <f_readdir+0xd0>
            get_fileinfo(dj, fno);     /* Get the object information */
 401325c:	e13ffe17 	ldw	r4,-8(fp)
 4013260:	e17fff17 	ldw	r5,-4(fp)
 4013264:	40117240 	call	4011724 <get_fileinfo>
            res = dir_next(dj, 0);     /* Increment index for next */
 4013268:	e13ffe17 	ldw	r4,-8(fp)
 401326c:	000b883a 	mov	r5,zero
 4013270:	40110580 	call	4011058 <dir_next>
 4013274:	e0bffa15 	stw	r2,-24(fp)
            if (res == FR_NO_FILE) {
 4013278:	e0bffa17 	ldw	r2,-24(fp)
 401327c:	10800118 	cmpnei	r2,r2,4
 4013280:	1000031e 	bne	r2,zero,4013290 <f_readdir+0xd0>
               dj->sect = 0;
 4013284:	e0bffe17 	ldw	r2,-8(fp)
 4013288:	10000415 	stw	zero,16(r2)
               res = FR_OK;
 401328c:	e03ffa15 	stw	zero,-24(fp)
         }
         FREE_BUF();
      }
   }

   LEAVE_FF(dj->fs, res);
 4013290:	e0bffa17 	ldw	r2,-24(fp)
}
 4013294:	e037883a 	mov	sp,fp
 4013298:	dfc00117 	ldw	ra,4(sp)
 401329c:	df000017 	ldw	fp,0(sp)
 40132a0:	dec00204 	addi	sp,sp,8
 40132a4:	f800283a 	ret

040132a8 <f_gets>:
TCHAR* f_gets (
   TCHAR* buff,   /* Pointer to the string buffer to read */
   int len,    /* Size of string buffer (characters) */
   FIL* fil    /* Pointer to the file object */
)
{
 40132a8:	defff504 	addi	sp,sp,-44
 40132ac:	dfc00a15 	stw	ra,40(sp)
 40132b0:	df000915 	stw	fp,36(sp)
 40132b4:	df000904 	addi	fp,sp,36
 40132b8:	e13ffc15 	stw	r4,-16(fp)
 40132bc:	e17ffd15 	stw	r5,-12(fp)
 40132c0:	e1bffe15 	stw	r6,-8(fp)
   int n = 0;
 40132c4:	e03ff915 	stw	zero,-28(fp)
   TCHAR c, *p = buff;
 40132c8:	e0bffc17 	ldw	r2,-16(fp)
 40132cc:	e0bff715 	stw	r2,-36(fp)
   FFS_U8 s[2];
   FFS_U32 rc;


   while (n < len - 1) {         /* Read bytes until buffer gets filled */
 40132d0:	00001606 	br	401332c <f_gets+0x84>
      f_read(fil, s, 1, &rc);
 40132d4:	e17ffa04 	addi	r5,fp,-24
 40132d8:	e1fffb04 	addi	r7,fp,-20
 40132dc:	e13ffe17 	ldw	r4,-8(fp)
 40132e0:	01800044 	movi	r6,1
 40132e4:	40128580 	call	4012858 <f_read>
      if (rc != 1) break;        /* Break on EOF or error */
 40132e8:	e0bffb17 	ldw	r2,-20(fp)
 40132ec:	10800058 	cmpnei	r2,r2,1
 40132f0:	1000121e 	bne	r2,zero,401333c <f_gets+0x94>
      c = s[0];
 40132f4:	e0bffa03 	ldbu	r2,-24(fp)
 40132f8:	e0bff805 	stb	r2,-32(fp)
      }
#endif
#if _USE_STRFUNC >= 2
      if (c == '\r') continue;   /* Strip '\r' */
#endif
      *p++ = c;
 40132fc:	e0fff717 	ldw	r3,-36(fp)
 4013300:	e0bff803 	ldbu	r2,-32(fp)
 4013304:	18800005 	stb	r2,0(r3)
 4013308:	e0bff717 	ldw	r2,-36(fp)
 401330c:	10800044 	addi	r2,r2,1
 4013310:	e0bff715 	stw	r2,-36(fp)
      n++;
 4013314:	e0bff917 	ldw	r2,-28(fp)
 4013318:	10800044 	addi	r2,r2,1
 401331c:	e0bff915 	stw	r2,-28(fp)
      if (c == '\n') break;      /* Break on EOL */
 4013320:	e0bff807 	ldb	r2,-32(fp)
 4013324:	108002a0 	cmpeqi	r2,r2,10
 4013328:	1000041e 	bne	r2,zero,401333c <f_gets+0x94>
   TCHAR c, *p = buff;
   FFS_U8 s[2];
   FFS_U32 rc;


   while (n < len - 1) {         /* Read bytes until buffer gets filled */
 401332c:	e0bffd17 	ldw	r2,-12(fp)
 4013330:	10ffffc4 	addi	r3,r2,-1
 4013334:	e0bff917 	ldw	r2,-28(fp)
 4013338:	10ffe616 	blt	r2,r3,40132d4 <f_gets+0x2c>
#endif
      *p++ = c;
      n++;
      if (c == '\n') break;      /* Break on EOL */
   }
   *p = 0;
 401333c:	e0bff717 	ldw	r2,-36(fp)
 4013340:	10000005 	stb	zero,0(r2)
   return n ? buff : 0;       /* When no data read (eof or error), return with error. */
 4013344:	e0bff917 	ldw	r2,-28(fp)
 4013348:	1005003a 	cmpeq	r2,r2,zero
 401334c:	1000031e 	bne	r2,zero,401335c <f_gets+0xb4>
 4013350:	e0bffc17 	ldw	r2,-16(fp)
 4013354:	e0bfff15 	stw	r2,-4(fp)
 4013358:	00000106 	br	4013360 <f_gets+0xb8>
 401335c:	e03fff15 	stw	zero,-4(fp)
 4013360:	e0bfff17 	ldw	r2,-4(fp)
}
 4013364:	e037883a 	mov	sp,fp
 4013368:	dfc00117 	ldw	ra,4(sp)
 401336c:	df000017 	ldw	fp,0(sp)
 4013370:	dec00204 	addi	sp,sp,8
 4013374:	f800283a 	ret

04013378 <ffs_Init>:
/*  In    : none                                                           */
/*  Out   : none                                                           */
/*  Return: error cause                                                    */
/***************************************************************************/
FFS_RESULT ffs_Init(void)
{
 4013378:	defffe04 	addi	sp,sp,-8
 401337c:	df000115 	stw	fp,4(sp)
 4013380:	df000104 	addi	fp,sp,4
   FFS_RESULT Error = FFS_OK;
 4013384:	e03fff0d 	sth	zero,-4(fp)
   
   return (Error);
 4013388:	e0bfff0f 	ldh	r2,-4(fp)
} /* ffs_Init */
 401338c:	e037883a 	mov	sp,fp
 4013390:	df000017 	ldw	fp,0(sp)
 4013394:	dec00104 	addi	sp,sp,4
 4013398:	f800283a 	ret

0401339c <SetLowSpeed>:
/*  In    : none                                                           */
/*  Out   : none                                                           */
/*  Return: none                                                           */
/***************************************************************************/
static void SetLowSpeed(void)
{
 401339c:	deffff04 	addi	sp,sp,-4
 40133a0:	df000015 	stw	fp,0(sp)
 40133a4:	d839883a 	mov	fp,sp
   Control1 &= ~0xFF00;
 40133a8:	d0e0de0b 	ldhu	r3,-31880(gp)
 40133ac:	00803fc4 	movi	r2,255
 40133b0:	1884703a 	and	r2,r3,r2
 40133b4:	d0a0de0d 	sth	r2,-31880(gp)
   Control1 |= (249 << 8);
 40133b8:	d0e0de0b 	ldhu	r3,-31880(gp)
 40133bc:	00be4004 	movi	r2,-1792
 40133c0:	1884b03a 	or	r2,r3,r2
 40133c4:	d0a0de0d 	sth	r2,-31880(gp)
   SPI_CTRL  = Control1;
 40133c8:	00e100b4 	movhi	r3,33794
 40133cc:	18c42904 	addi	r3,r3,4260
 40133d0:	d0a0de0b 	ldhu	r2,-31880(gp)
 40133d4:	1880000d 	sth	r2,0(r3)
} /* SetLowSpeed */
 40133d8:	e037883a 	mov	sp,fp
 40133dc:	df000017 	ldw	fp,0(sp)
 40133e0:	dec00104 	addi	sp,sp,4
 40133e4:	f800283a 	ret

040133e8 <SetHighSpeed>:
/*  In    : none                                                           */
/*  Out   : none                                                           */
/*  Return: none                                                           */
/***************************************************************************/
static void SetHighSpeed(void)
{
 40133e8:	deffff04 	addi	sp,sp,-4
 40133ec:	df000015 	stw	fp,0(sp)
 40133f0:	d839883a 	mov	fp,sp
   Control1 &= ~0xFF00;
 40133f4:	d0e0de0b 	ldhu	r3,-31880(gp)
 40133f8:	00803fc4 	movi	r2,255
 40133fc:	1884703a 	and	r2,r3,r2
 4013400:	d0a0de0d 	sth	r2,-31880(gp)

   if (0 == (CardType & 0x01))
 4013404:	d0a0dc03 	ldbu	r2,-31888(gp)
 4013408:	10803fcc 	andi	r2,r2,255
 401340c:	1080004c 	andi	r2,r2,1
 4013410:	1004c03a 	cmpne	r2,r2,zero
 4013414:	1000041e 	bne	r2,zero,4013428 <SetHighSpeed+0x40>
   {
      /* SD card 25 MHz */
      Control1 |= (1 << 8);
 4013418:	d0a0de0b 	ldhu	r2,-31880(gp)
 401341c:	10804014 	ori	r2,r2,256
 4013420:	d0a0de0d 	sth	r2,-31880(gp)
 4013424:	00000306 	br	4013434 <SetHighSpeed+0x4c>
   }
   else
   {
      /* MMC card 16 MHz */
      Control1 |= (2 << 8);
 4013428:	d0a0de0b 	ldhu	r2,-31880(gp)
 401342c:	10808014 	ori	r2,r2,512
 4013430:	d0a0de0d 	sth	r2,-31880(gp)
   }
   SPI_CTRL  = Control1;
 4013434:	00e100b4 	movhi	r3,33794
 4013438:	18c42904 	addi	r3,r3,4260
 401343c:	d0a0de0b 	ldhu	r2,-31880(gp)
 4013440:	1880000d 	sth	r2,0(r3)
} /* SetHighSpeed */
 4013444:	e037883a 	mov	sp,fp
 4013448:	df000017 	ldw	fp,0(sp)
 401344c:	dec00104 	addi	sp,sp,4
 4013450:	f800283a 	ret

04013454 <InitDiskIOHardware>:
/*  In    : none                                                           */
/*  Out   : none                                                           */
/*  Return: none                                                           */
/***************************************************************************/
static void InitDiskIOHardware(void)
{
 4013454:	defffe04 	addi	sp,sp,-8
 4013458:	dfc00115 	stw	ra,4(sp)
 401345c:	df000015 	stw	fp,0(sp)
 4013460:	d839883a 	mov	fp,sp
   /*
    * Deselct before to prevent glitch
    */
   DESELECT();
 4013464:	d0a0de0b 	ldhu	r2,-31880(gp)
 4013468:	10800054 	ori	r2,r2,1
 401346c:	d0a0de0d 	sth	r2,-31880(gp)
 4013470:	00e100b4 	movhi	r3,33794
 4013474:	18c42904 	addi	r3,r3,4260
 4013478:	d0a0de0b 	ldhu	r2,-31880(gp)
 401347c:	1880000d 	sth	r2,0(r3)

   /* Slow during init */
   SetLowSpeed();
 4013480:	401339c0 	call	401339c <SetLowSpeed>
   
} /* InitDiskIOHardware */
 4013484:	e037883a 	mov	sp,fp
 4013488:	dfc00117 	ldw	ra,4(sp)
 401348c:	df000017 	ldw	fp,0(sp)
 4013490:	dec00204 	addi	sp,sp,8
 4013494:	f800283a 	ret

04013498 <Set8BitTransfer>:
/*  In    : none                                                           */
/*  Out   : none                                                           */
/*  Return: none                                                           */
/***************************************************************************/
static void Set8BitTransfer(void)
{
 4013498:	deffff04 	addi	sp,sp,-4
 401349c:	df000015 	stw	fp,0(sp)
 40134a0:	d839883a 	mov	fp,sp
   Control1 &= ~CTRL_BIT16;
 40134a4:	d0e0de0b 	ldhu	r3,-31880(gp)
 40134a8:	00bfff44 	movi	r2,-3
 40134ac:	1884703a 	and	r2,r3,r2
 40134b0:	d0a0de0d 	sth	r2,-31880(gp)
   SPI_CTRL  = Control1;
 40134b4:	00e100b4 	movhi	r3,33794
 40134b8:	18c42904 	addi	r3,r3,4260
 40134bc:	d0a0de0b 	ldhu	r2,-31880(gp)
 40134c0:	1880000d 	sth	r2,0(r3)
} /* Set8BitTransfer */
 40134c4:	e037883a 	mov	sp,fp
 40134c8:	df000017 	ldw	fp,0(sp)
 40134cc:	dec00104 	addi	sp,sp,4
 40134d0:	f800283a 	ret

040134d4 <Set16BitTransfer>:
/*  In    : none                                                           */
/*  Out   : none                                                           */
/*  Return: none                                                           */
/***************************************************************************/
static void Set16BitTransfer(void)
{
 40134d4:	deffff04 	addi	sp,sp,-4
 40134d8:	df000015 	stw	fp,0(sp)
 40134dc:	d839883a 	mov	fp,sp
   Control1 |= CTRL_BIT16;
 40134e0:	d0a0de0b 	ldhu	r2,-31880(gp)
 40134e4:	10800094 	ori	r2,r2,2
 40134e8:	d0a0de0d 	sth	r2,-31880(gp)
   SPI_CTRL  = Control1;
 40134ec:	00e100b4 	movhi	r3,33794
 40134f0:	18c42904 	addi	r3,r3,4260
 40134f4:	d0a0de0b 	ldhu	r2,-31880(gp)
 40134f8:	1880000d 	sth	r2,0(r3)
} /* Set16BitTransfer */
 40134fc:	e037883a 	mov	sp,fp
 4013500:	df000017 	ldw	fp,0(sp)
 4013504:	dec00104 	addi	sp,sp,4
 4013508:	f800283a 	ret

0401350c <ReceiveU8>:
/*  In    : none                                                           */
/*  Out   : none                                                           */
/*  Return: Data                                                           */
/***************************************************************************/
static FFS_U8 ReceiveU8 (void)
{
 401350c:	deffff04 	addi	sp,sp,-4
 4013510:	df000015 	stw	fp,0(sp)
 4013514:	d839883a 	mov	fp,sp
   SPI_TXR = (FFS_U16) 0xff;
 4013518:	00e100b4 	movhi	r3,33794
 401351c:	18c42804 	addi	r3,r3,4256
 4013520:	00803fc4 	movi	r2,255
 4013524:	1880000d 	sth	r2,0(r3)

   /* wait for char */
   while (!(SPI_SR & SPI_SR_DONE)) ;
 4013528:	00a100b4 	movhi	r2,33794
 401352c:	10842984 	addi	r2,r2,4262
 4013530:	1080000b 	ldhu	r2,0(r2)
 4013534:	10bfffcc 	andi	r2,r2,65535
 4013538:	1080004c 	andi	r2,r2,1
 401353c:	1005003a 	cmpeq	r2,r2,zero
 4013540:	103ff91e 	bne	r2,zero,4013528 <ReceiveU8+0x1c>

   return(SPI_RXR);
 4013544:	00a100b4 	movhi	r2,33794
 4013548:	10842884 	addi	r2,r2,4258
 401354c:	1080000b 	ldhu	r2,0(r2)
 4013550:	10803fcc 	andi	r2,r2,255
} /* ReceiveU8 */
 4013554:	e037883a 	mov	sp,fp
 4013558:	df000017 	ldw	fp,0(sp)
 401355c:	dec00104 	addi	sp,sp,4
 4013560:	f800283a 	ret

04013564 <ReceiveDatablock>:
/*  In    : buff, btr                                                      */
/*  Out   : none                                                           */
/*  Return: In case of an error return FALSE                               */
/***************************************************************************/
static int ReceiveDatablock(FFS_U8 * buff, FFS_U32 btr)
{
 4013564:	defffa04 	addi	sp,sp,-24
 4013568:	dfc00515 	stw	ra,20(sp)
 401356c:	df000415 	stw	fp,16(sp)
 4013570:	df000404 	addi	fp,sp,16
 4013574:	e13ffd15 	stw	r4,-12(fp)
 4013578:	e17ffe15 	stw	r5,-8(fp)
   FFS_U8 token;
   volatile FFS_U16 value;

   Timer1 = 10;
 401357c:	00800284 	movi	r2,10
 4013580:	d0a0dc8d 	sth	r2,-31886(gp)
   do /* Wait for data packet in timeout of 100ms */
   {
      token = ReceiveU8();
 4013584:	401350c0 	call	401350c <ReceiveU8>
 4013588:	e0bffc05 	stb	r2,-16(fp)
   }
   while ((token == 0xFF) && Timer1);
 401358c:	e0bffc03 	ldbu	r2,-16(fp)
 4013590:	10803fd8 	cmpnei	r2,r2,255
 4013594:	1000041e 	bne	r2,zero,40135a8 <ReceiveDatablock+0x44>
 4013598:	d0a0dc8b 	ldhu	r2,-31886(gp)
 401359c:	10bfffcc 	andi	r2,r2,65535
 40135a0:	1004c03a 	cmpne	r2,r2,zero
 40135a4:	103ff71e 	bne	r2,zero,4013584 <ReceiveDatablock+0x20>

   if (token != 0xFE)
 40135a8:	e0bffc03 	ldbu	r2,-16(fp)
 40135ac:	10803fa0 	cmpeqi	r2,r2,254
 40135b0:	1000021e 	bne	r2,zero,40135bc <ReceiveDatablock+0x58>
      return(FFS_FALSE);  /* If not valid data token, return with error */
 40135b4:	e03fff15 	stw	zero,-4(fp)
 40135b8:	00005606 	br	4013714 <ReceiveDatablock+0x1b0>
      
   /* Receive the data block into buffer */
   Set16BitTransfer();
 40135bc:	40134d40 	call	40134d4 <Set16BitTransfer>

   do /* Receive the data block into buffer */
   {
      RECEIVE_FAST(value, buff);
 40135c0:	00e100b4 	movhi	r3,33794
 40135c4:	18c42804 	addi	r3,r3,4256
 40135c8:	00bfffc4 	movi	r2,-1
 40135cc:	1880000d 	sth	r2,0(r3)
 40135d0:	00a100b4 	movhi	r2,33794
 40135d4:	10842984 	addi	r2,r2,4262
 40135d8:	1080000b 	ldhu	r2,0(r2)
 40135dc:	10bfffcc 	andi	r2,r2,65535
 40135e0:	1080004c 	andi	r2,r2,1
 40135e4:	1005003a 	cmpeq	r2,r2,zero
 40135e8:	103ff91e 	bne	r2,zero,40135d0 <ReceiveDatablock+0x6c>
 40135ec:	00a100b4 	movhi	r2,33794
 40135f0:	10842884 	addi	r2,r2,4258
 40135f4:	1080000b 	ldhu	r2,0(r2)
 40135f8:	e0bffc8d 	sth	r2,-14(fp)
 40135fc:	e0bffc8b 	ldhu	r2,-14(fp)
 4013600:	10bfffcc 	andi	r2,r2,65535
 4013604:	1004d23a 	srli	r2,r2,8
 4013608:	1007883a 	mov	r3,r2
 401360c:	00bfffc4 	movi	r2,-1
 4013610:	1884703a 	and	r2,r3,r2
 4013614:	1007883a 	mov	r3,r2
 4013618:	e0bffd17 	ldw	r2,-12(fp)
 401361c:	10c00005 	stb	r3,0(r2)
 4013620:	e0bffd17 	ldw	r2,-12(fp)
 4013624:	10800044 	addi	r2,r2,1
 4013628:	e0bffd15 	stw	r2,-12(fp)
 401362c:	e0bffc8b 	ldhu	r2,-14(fp)
 4013630:	1007883a 	mov	r3,r2
 4013634:	00bfffc4 	movi	r2,-1
 4013638:	1884703a 	and	r2,r3,r2
 401363c:	1007883a 	mov	r3,r2
 4013640:	e0bffd17 	ldw	r2,-12(fp)
 4013644:	10c00005 	stb	r3,0(r2)
 4013648:	e0bffd17 	ldw	r2,-12(fp)
 401364c:	10800044 	addi	r2,r2,1
 4013650:	e0bffd15 	stw	r2,-12(fp)
      RECEIVE_FAST(value, buff);
 4013654:	00e100b4 	movhi	r3,33794
 4013658:	18c42804 	addi	r3,r3,4256
 401365c:	00bfffc4 	movi	r2,-1
 4013660:	1880000d 	sth	r2,0(r3)
 4013664:	00a100b4 	movhi	r2,33794
 4013668:	10842984 	addi	r2,r2,4262
 401366c:	1080000b 	ldhu	r2,0(r2)
 4013670:	10bfffcc 	andi	r2,r2,65535
 4013674:	1080004c 	andi	r2,r2,1
 4013678:	1005003a 	cmpeq	r2,r2,zero
 401367c:	103ff91e 	bne	r2,zero,4013664 <ReceiveDatablock+0x100>
 4013680:	00a100b4 	movhi	r2,33794
 4013684:	10842884 	addi	r2,r2,4258
 4013688:	1080000b 	ldhu	r2,0(r2)
 401368c:	e0bffc8d 	sth	r2,-14(fp)
 4013690:	e0bffc8b 	ldhu	r2,-14(fp)
 4013694:	10bfffcc 	andi	r2,r2,65535
 4013698:	1004d23a 	srli	r2,r2,8
 401369c:	1007883a 	mov	r3,r2
 40136a0:	00bfffc4 	movi	r2,-1
 40136a4:	1884703a 	and	r2,r3,r2
 40136a8:	1007883a 	mov	r3,r2
 40136ac:	e0bffd17 	ldw	r2,-12(fp)
 40136b0:	10c00005 	stb	r3,0(r2)
 40136b4:	e0bffd17 	ldw	r2,-12(fp)
 40136b8:	10800044 	addi	r2,r2,1
 40136bc:	e0bffd15 	stw	r2,-12(fp)
 40136c0:	e0bffc8b 	ldhu	r2,-14(fp)
 40136c4:	1007883a 	mov	r3,r2
 40136c8:	00bfffc4 	movi	r2,-1
 40136cc:	1884703a 	and	r2,r3,r2
 40136d0:	1007883a 	mov	r3,r2
 40136d4:	e0bffd17 	ldw	r2,-12(fp)
 40136d8:	10c00005 	stb	r3,0(r2)
 40136dc:	e0bffd17 	ldw	r2,-12(fp)
 40136e0:	10800044 	addi	r2,r2,1
 40136e4:	e0bffd15 	stw	r2,-12(fp)
   }
   while (btr -= 4);
 40136e8:	e0bffe17 	ldw	r2,-8(fp)
 40136ec:	10bfff04 	addi	r2,r2,-4
 40136f0:	e0bffe15 	stw	r2,-8(fp)
 40136f4:	e0bffe17 	ldw	r2,-8(fp)
 40136f8:	1004c03a 	cmpne	r2,r2,zero
 40136fc:	103fb01e 	bne	r2,zero,40135c0 <ReceiveDatablock+0x5c>
   
   Set8BitTransfer();   
 4013700:	40134980 	call	4013498 <Set8BitTransfer>
   ReceiveU8();   /* Discard CRC */
 4013704:	401350c0 	call	401350c <ReceiveU8>
   ReceiveU8();
 4013708:	401350c0 	call	401350c <ReceiveU8>

   return(FFS_TRUE);  /* Return with success */
 401370c:	00800044 	movi	r2,1
 4013710:	e0bfff15 	stw	r2,-4(fp)
 4013714:	e0bfff17 	ldw	r2,-4(fp)
} /* ReceiveDatablock */
 4013718:	e037883a 	mov	sp,fp
 401371c:	dfc00117 	ldw	ra,4(sp)
 4013720:	df000017 	ldw	fp,0(sp)
 4013724:	dec00204 	addi	sp,sp,8
 4013728:	f800283a 	ret

0401372c <TransmitDatablock>:
/*  In    : buff, token (Data/Stop token)                                  */
/*  Out   : none                                                           */
/*  Return: In case of an error return FALSE                               */
/***************************************************************************/
static int TransmitDatablock(const FFS_U8 * buff, FFS_U8 token)
{
 401372c:	defffa04 	addi	sp,sp,-24
 4013730:	dfc00515 	stw	ra,20(sp)
 4013734:	df000415 	stw	fp,16(sp)
 4013738:	df000404 	addi	fp,sp,16
 401373c:	e13ffd15 	stw	r4,-12(fp)
 4013740:	e17ffe05 	stb	r5,-8(fp)
   FFS_U8 resp, wc = 0;
 4013744:	e03ffc05 	stb	zero,-16(fp)

   if (WaitReady() != 0xFF)
 4013748:	40138a40 	call	40138a4 <WaitReady>
 401374c:	10803fcc 	andi	r2,r2,255
 4013750:	10803fe0 	cmpeqi	r2,r2,255
 4013754:	1000021e 	bne	r2,zero,4013760 <TransmitDatablock+0x34>
      return(FFS_FALSE);
 4013758:	e03fff15 	stw	zero,-4(fp)
 401375c:	00004206 	br	4013868 <TransmitDatablock+0x13c>

   TRANSMIT_U8(token);  /* Xmit data token */
 4013760:	00e100b4 	movhi	r3,33794
 4013764:	18c42804 	addi	r3,r3,4256
 4013768:	e0bffe03 	ldbu	r2,-8(fp)
 401376c:	1880000d 	sth	r2,0(r3)
 4013770:	00a100b4 	movhi	r2,33794
 4013774:	10842984 	addi	r2,r2,4262
 4013778:	1080000b 	ldhu	r2,0(r2)
 401377c:	10bfffcc 	andi	r2,r2,65535
 4013780:	1080004c 	andi	r2,r2,1
 4013784:	1005003a 	cmpeq	r2,r2,zero
 4013788:	103ff91e 	bne	r2,zero,4013770 <TransmitDatablock+0x44>
   if (token != 0xFD)   /* Is data token */
 401378c:	e0bffe03 	ldbu	r2,-8(fp)
 4013790:	10803f60 	cmpeqi	r2,r2,253
 4013794:	1000321e 	bne	r2,zero,4013860 <TransmitDatablock+0x134>
   {
   
      /* Send the 512 byte data block */
      Set16BitTransfer();
 4013798:	40134d40 	call	40134d4 <Set16BitTransfer>
      do /* Send the 512 byte data block */
      {
         TRANSMIT_FAST((*buff << 8) | *(buff + 1));
 401379c:	012100b4 	movhi	r4,33794
 40137a0:	21042804 	addi	r4,r4,4256
 40137a4:	e0bffd17 	ldw	r2,-12(fp)
 40137a8:	10800003 	ldbu	r2,0(r2)
 40137ac:	10803fcc 	andi	r2,r2,255
 40137b0:	1004923a 	slli	r2,r2,8
 40137b4:	1007883a 	mov	r3,r2
 40137b8:	e0bffd17 	ldw	r2,-12(fp)
 40137bc:	10800044 	addi	r2,r2,1
 40137c0:	10800003 	ldbu	r2,0(r2)
 40137c4:	10803fcc 	andi	r2,r2,255
 40137c8:	1884b03a 	or	r2,r3,r2
 40137cc:	2080000d 	sth	r2,0(r4)
 40137d0:	00a100b4 	movhi	r2,33794
 40137d4:	10842984 	addi	r2,r2,4262
 40137d8:	1080000b 	ldhu	r2,0(r2)
 40137dc:	10bfffcc 	andi	r2,r2,65535
 40137e0:	1080004c 	andi	r2,r2,1
 40137e4:	1005003a 	cmpeq	r2,r2,zero
 40137e8:	103ff91e 	bne	r2,zero,40137d0 <TransmitDatablock+0xa4>
         buff += 2;
 40137ec:	e0bffd17 	ldw	r2,-12(fp)
 40137f0:	10800084 	addi	r2,r2,2
 40137f4:	e0bffd15 	stw	r2,-12(fp)
      }
      while (--wc);
 40137f8:	e0bffc03 	ldbu	r2,-16(fp)
 40137fc:	10bfffc4 	addi	r2,r2,-1
 4013800:	e0bffc05 	stb	r2,-16(fp)
 4013804:	e0bffc03 	ldbu	r2,-16(fp)
 4013808:	1004c03a 	cmpne	r2,r2,zero
 401380c:	103fe31e 	bne	r2,zero,401379c <TransmitDatablock+0x70>

      TRANSMIT_FAST(0xFFFF);  /* CRC (Dummy) */
 4013810:	00e100b4 	movhi	r3,33794
 4013814:	18c42804 	addi	r3,r3,4256
 4013818:	00bfffc4 	movi	r2,-1
 401381c:	1880000d 	sth	r2,0(r3)
 4013820:	00a100b4 	movhi	r2,33794
 4013824:	10842984 	addi	r2,r2,4262
 4013828:	1080000b 	ldhu	r2,0(r2)
 401382c:	10bfffcc 	andi	r2,r2,65535
 4013830:	1080004c 	andi	r2,r2,1
 4013834:	1005003a 	cmpeq	r2,r2,zero
 4013838:	103ff91e 	bne	r2,zero,4013820 <TransmitDatablock+0xf4>
      
      Set8BitTransfer();
 401383c:	40134980 	call	4013498 <Set8BitTransfer>

      resp = ReceiveU8();  /* Reveive data response */
 4013840:	401350c0 	call	401350c <ReceiveU8>
 4013844:	e0bffc45 	stb	r2,-15(fp)
      if ((resp & 0x1F) != 0x05) /* If not accepted, return with error */
 4013848:	e0bffc43 	ldbu	r2,-15(fp)
 401384c:	108007cc 	andi	r2,r2,31
 4013850:	10800160 	cmpeqi	r2,r2,5
 4013854:	1000021e 	bne	r2,zero,4013860 <TransmitDatablock+0x134>
      {
         return(FFS_FALSE);
 4013858:	e03fff15 	stw	zero,-4(fp)
 401385c:	00000206 	br	4013868 <TransmitDatablock+0x13c>
      }
   }

   return(FFS_TRUE);  /* Return with success */
 4013860:	00800044 	movi	r2,1
 4013864:	e0bfff15 	stw	r2,-4(fp)
 4013868:	e0bfff17 	ldw	r2,-4(fp)
} /* TransmitDatablock */
 401386c:	e037883a 	mov	sp,fp
 4013870:	dfc00117 	ldw	ra,4(sp)
 4013874:	df000017 	ldw	fp,0(sp)
 4013878:	dec00204 	addi	sp,sp,8
 401387c:	f800283a 	ret

04013880 <GetCDWP>:
/*  In    : none                                                           */
/*  Out   : none                                                           */
/*  Return: Data                                                           */
/***************************************************************************/
static FFS_U32 GetCDWP(void)
{
 4013880:	defffe04 	addi	sp,sp,-8
 4013884:	df000115 	stw	fp,4(sp)
 4013888:	df000104 	addi	fp,sp,4
   FFS_U32 value = 0;
 401388c:	e03fff15 	stw	zero,-4(fp)
   
   /*
    * CD and WP is not supported by the Altera DE1 board.
    */

   return(value);
 4013890:	e0bfff17 	ldw	r2,-4(fp)
} /* GetCDWP */
 4013894:	e037883a 	mov	sp,fp
 4013898:	df000017 	ldw	fp,0(sp)
 401389c:	dec00104 	addi	sp,sp,4
 40138a0:	f800283a 	ret

040138a4 <WaitReady>:

/*-----------------------------------------------------------------------*/
/* Wait for card ready                                                   */
/*-----------------------------------------------------------------------*/
static FFS_U8 WaitReady (void)
{
 40138a4:	defffd04 	addi	sp,sp,-12
 40138a8:	dfc00215 	stw	ra,8(sp)
 40138ac:	df000115 	stw	fp,4(sp)
 40138b0:	df000104 	addi	fp,sp,4
   FFS_U8 res;
   
#if (FFS_USE_REAL_TIME_OS == 0)
   Timer2 = (WAIT_READY_TIME_MAX_MS / 10);
 40138b4:	00800c84 	movi	r2,50
 40138b8:	d0a0dd0d 	sth	r2,-31884(gp)
   ReceiveU8();
 40138bc:	401350c0 	call	401350c <ReceiveU8>
   do
   {
      res = ReceiveU8();
 40138c0:	401350c0 	call	401350c <ReceiveU8>
 40138c4:	e0bfff05 	stb	r2,-4(fp)
   }
   while ((res != 0xFF) && Timer2);
 40138c8:	e0bfff03 	ldbu	r2,-4(fp)
 40138cc:	10803fe0 	cmpeqi	r2,r2,255
 40138d0:	1000041e 	bne	r2,zero,40138e4 <WaitReady+0x40>
 40138d4:	d0a0dd0b 	ldhu	r2,-31884(gp)
 40138d8:	10bfffcc 	andi	r2,r2,65535
 40138dc:	1004c03a 	cmpne	r2,r2,zero
 40138e0:	103ff71e 	bne	r2,zero,40138c0 <WaitReady+0x1c>
      ff_wait_ms(WAIT_READY_TIME_RTOS_MS);
   }
   while ((res != 0xFF) && (cnt < WAIT_READY_TIME_CNT_RTOS));
#endif   

   return(res);
 40138e4:	e0bfff03 	ldbu	r2,-4(fp)
} /* WaitReady */
 40138e8:	e037883a 	mov	sp,fp
 40138ec:	dfc00117 	ldw	ra,4(sp)
 40138f0:	df000017 	ldw	fp,0(sp)
 40138f4:	dec00204 	addi	sp,sp,8
 40138f8:	f800283a 	ret

040138fc <ReleaseBus>:

/*-----------------------------------------------------------------------*/
/* Deselect the card and release SPI bus                                 */
/*-----------------------------------------------------------------------*/
static void ReleaseBus (void)
{
 40138fc:	defffe04 	addi	sp,sp,-8
 4013900:	dfc00115 	stw	ra,4(sp)
 4013904:	df000015 	stw	fp,0(sp)
 4013908:	d839883a 	mov	fp,sp
    * master device must send a byte after deasserted CS signal.   
    *
    * More information can be found here:
    * http://elm-chan.org/docs/mmc/mmc_e.html
    */
   DESELECT();
 401390c:	d0a0de0b 	ldhu	r2,-31880(gp)
 4013910:	10800054 	ori	r2,r2,1
 4013914:	d0a0de0d 	sth	r2,-31880(gp)
 4013918:	00e100b4 	movhi	r3,33794
 401391c:	18c42904 	addi	r3,r3,4260
 4013920:	d0a0de0b 	ldhu	r2,-31880(gp)
 4013924:	1880000d 	sth	r2,0(r3)
   ReceiveU8();
 4013928:	401350c0 	call	401350c <ReceiveU8>
} /* ReleaseBus */
 401392c:	e037883a 	mov	sp,fp
 4013930:	dfc00117 	ldw	ra,4(sp)
 4013934:	df000017 	ldw	fp,0(sp)
 4013938:	dec00204 	addi	sp,sp,8
 401393c:	f800283a 	ret

04013940 <SendCMD>:
/*-----------------------------------------------------------------------*/
/* Send a command packet to MMC                                          */
/*-----------------------------------------------------------------------*/
static FFS_U8 SendCMD (FFS_U8 cmd,   /* Command byte */
                       FFS_U32 arg)  /* Argument */
{
 4013940:	defffa04 	addi	sp,sp,-24
 4013944:	dfc00515 	stw	ra,20(sp)
 4013948:	df000415 	stw	fp,16(sp)
 401394c:	df000404 	addi	fp,sp,16
 4013950:	e17ffe15 	stw	r5,-8(fp)
 4013954:	e13ffd05 	stb	r4,-12(fp)
   FFS_U8 n, res;

   if (cmd & 0x80)   /* ACMD<n> is the command sequense of CMD55-CMD<n> */
 4013958:	e0bffd03 	ldbu	r2,-12(fp)
 401395c:	10803fcc 	andi	r2,r2,255
 4013960:	1080201c 	xori	r2,r2,128
 4013964:	10bfe004 	addi	r2,r2,-128
 4013968:	1004403a 	cmpge	r2,r2,zero
 401396c:	10000d1e 	bne	r2,zero,40139a4 <SendCMD+0x64>
   {
      cmd &= 0x7F;
 4013970:	e0bffd03 	ldbu	r2,-12(fp)
 4013974:	10801fcc 	andi	r2,r2,127
 4013978:	e0bffd05 	stb	r2,-12(fp)
      res = SendCMD(CMD55, 0);
 401397c:	01001dc4 	movi	r4,119
 4013980:	000b883a 	mov	r5,zero
 4013984:	40139400 	call	4013940 <SendCMD>
 4013988:	e0bffc05 	stb	r2,-16(fp)
      if (res > 1)
 401398c:	e0bffc03 	ldbu	r2,-16(fp)
 4013990:	108000b0 	cmpltui	r2,r2,2
 4013994:	1000031e 	bne	r2,zero,40139a4 <SendCMD+0x64>
         return res;
 4013998:	e0bffc03 	ldbu	r2,-16(fp)
 401399c:	e0bfff15 	stw	r2,-4(fp)
 40139a0:	00008106 	br	4013ba8 <SendCMD+0x268>
   }

   /* Select the card and wait for ready */
   DESELECT();
 40139a4:	d0a0de0b 	ldhu	r2,-31880(gp)
 40139a8:	10800054 	ori	r2,r2,1
 40139ac:	d0a0de0d 	sth	r2,-31880(gp)
 40139b0:	00e100b4 	movhi	r3,33794
 40139b4:	18c42904 	addi	r3,r3,4260
 40139b8:	d0a0de0b 	ldhu	r2,-31880(gp)
 40139bc:	1880000d 	sth	r2,0(r3)
   SELECT();
 40139c0:	d0e0de0b 	ldhu	r3,-31880(gp)
 40139c4:	00bfff84 	movi	r2,-2
 40139c8:	1884703a 	and	r2,r3,r2
 40139cc:	d0a0de0d 	sth	r2,-31880(gp)
 40139d0:	00e100b4 	movhi	r3,33794
 40139d4:	18c42904 	addi	r3,r3,4260
 40139d8:	d0a0de0b 	ldhu	r2,-31880(gp)
 40139dc:	1880000d 	sth	r2,0(r3)

   if (WaitReady() != 0xFF)
 40139e0:	40138a40 	call	40138a4 <WaitReady>
 40139e4:	10803fcc 	andi	r2,r2,255
 40139e8:	10803fe0 	cmpeqi	r2,r2,255
 40139ec:	1000031e 	bne	r2,zero,40139fc <SendCMD+0xbc>
      return 0xFF;
 40139f0:	00803fc4 	movi	r2,255
 40139f4:	e0bfff15 	stw	r2,-4(fp)
 40139f8:	00006b06 	br	4013ba8 <SendCMD+0x268>

   /* Send command packet */
   TRANSMIT_U8(cmd); /* Start + Command index */
 40139fc:	00e100b4 	movhi	r3,33794
 4013a00:	18c42804 	addi	r3,r3,4256
 4013a04:	e0bffd03 	ldbu	r2,-12(fp)
 4013a08:	1880000d 	sth	r2,0(r3)
 4013a0c:	00a100b4 	movhi	r2,33794
 4013a10:	10842984 	addi	r2,r2,4262
 4013a14:	1080000b 	ldhu	r2,0(r2)
 4013a18:	10bfffcc 	andi	r2,r2,65535
 4013a1c:	1080004c 	andi	r2,r2,1
 4013a20:	1005003a 	cmpeq	r2,r2,zero
 4013a24:	103ff91e 	bne	r2,zero,4013a0c <SendCMD+0xcc>
   TRANSMIT_U8((FFS_U8) (arg >> 24));  /* Argument[31..24] */
 4013a28:	00e100b4 	movhi	r3,33794
 4013a2c:	18c42804 	addi	r3,r3,4256
 4013a30:	e0bffe17 	ldw	r2,-8(fp)
 4013a34:	1004d63a 	srli	r2,r2,24
 4013a38:	10803fcc 	andi	r2,r2,255
 4013a3c:	1880000d 	sth	r2,0(r3)
 4013a40:	00a100b4 	movhi	r2,33794
 4013a44:	10842984 	addi	r2,r2,4262
 4013a48:	1080000b 	ldhu	r2,0(r2)
 4013a4c:	10bfffcc 	andi	r2,r2,65535
 4013a50:	1080004c 	andi	r2,r2,1
 4013a54:	1005003a 	cmpeq	r2,r2,zero
 4013a58:	103ff91e 	bne	r2,zero,4013a40 <SendCMD+0x100>
   TRANSMIT_U8((FFS_U8) (arg >> 16));  /* Argument[23..16] */
 4013a5c:	00e100b4 	movhi	r3,33794
 4013a60:	18c42804 	addi	r3,r3,4256
 4013a64:	e0bffe17 	ldw	r2,-8(fp)
 4013a68:	1004d43a 	srli	r2,r2,16
 4013a6c:	10803fcc 	andi	r2,r2,255
 4013a70:	1880000d 	sth	r2,0(r3)
 4013a74:	00a100b4 	movhi	r2,33794
 4013a78:	10842984 	addi	r2,r2,4262
 4013a7c:	1080000b 	ldhu	r2,0(r2)
 4013a80:	10bfffcc 	andi	r2,r2,65535
 4013a84:	1080004c 	andi	r2,r2,1
 4013a88:	1005003a 	cmpeq	r2,r2,zero
 4013a8c:	103ff91e 	bne	r2,zero,4013a74 <SendCMD+0x134>
   TRANSMIT_U8((FFS_U8) (arg >> 8));   /* Argument[15..8] */
 4013a90:	00e100b4 	movhi	r3,33794
 4013a94:	18c42804 	addi	r3,r3,4256
 4013a98:	e0bffe17 	ldw	r2,-8(fp)
 4013a9c:	1004d23a 	srli	r2,r2,8
 4013aa0:	10803fcc 	andi	r2,r2,255
 4013aa4:	1880000d 	sth	r2,0(r3)
 4013aa8:	00a100b4 	movhi	r2,33794
 4013aac:	10842984 	addi	r2,r2,4262
 4013ab0:	1080000b 	ldhu	r2,0(r2)
 4013ab4:	10bfffcc 	andi	r2,r2,65535
 4013ab8:	1080004c 	andi	r2,r2,1
 4013abc:	1005003a 	cmpeq	r2,r2,zero
 4013ac0:	103ff91e 	bne	r2,zero,4013aa8 <SendCMD+0x168>
   TRANSMIT_U8((FFS_U8) arg); /* Argument[7..0] */
 4013ac4:	00e100b4 	movhi	r3,33794
 4013ac8:	18c42804 	addi	r3,r3,4256
 4013acc:	e0bffe17 	ldw	r2,-8(fp)
 4013ad0:	10803fcc 	andi	r2,r2,255
 4013ad4:	1880000d 	sth	r2,0(r3)
 4013ad8:	00a100b4 	movhi	r2,33794
 4013adc:	10842984 	addi	r2,r2,4262
 4013ae0:	1080000b 	ldhu	r2,0(r2)
 4013ae4:	10bfffcc 	andi	r2,r2,65535
 4013ae8:	1080004c 	andi	r2,r2,1
 4013aec:	1005003a 	cmpeq	r2,r2,zero
 4013af0:	103ff91e 	bne	r2,zero,4013ad8 <SendCMD+0x198>

   n = 0x01;   /* Dummy CRC + Stop */
 4013af4:	00800044 	movi	r2,1
 4013af8:	e0bffc45 	stb	r2,-15(fp)
   if (cmd == CMD0)
 4013afc:	e0bffd03 	ldbu	r2,-12(fp)
 4013b00:	10801018 	cmpnei	r2,r2,64
 4013b04:	1000021e 	bne	r2,zero,4013b10 <SendCMD+0x1d0>
      n = 0x95;   /* Valid CRC for CMD0(0) */
 4013b08:	00bfe544 	movi	r2,-107
 4013b0c:	e0bffc45 	stb	r2,-15(fp)
   if (cmd == CMD8)
 4013b10:	e0bffd03 	ldbu	r2,-12(fp)
 4013b14:	10801218 	cmpnei	r2,r2,72
 4013b18:	1000021e 	bne	r2,zero,4013b24 <SendCMD+0x1e4>
      n = 0x87;   /* Valid CRC for CMD8(0x1AA) */
 4013b1c:	00bfe1c4 	movi	r2,-121
 4013b20:	e0bffc45 	stb	r2,-15(fp)
   TRANSMIT_U8(n);
 4013b24:	00e100b4 	movhi	r3,33794
 4013b28:	18c42804 	addi	r3,r3,4256
 4013b2c:	e0bffc43 	ldbu	r2,-15(fp)
 4013b30:	1880000d 	sth	r2,0(r3)
 4013b34:	00a100b4 	movhi	r2,33794
 4013b38:	10842984 	addi	r2,r2,4262
 4013b3c:	1080000b 	ldhu	r2,0(r2)
 4013b40:	10bfffcc 	andi	r2,r2,65535
 4013b44:	1080004c 	andi	r2,r2,1
 4013b48:	1005003a 	cmpeq	r2,r2,zero
 4013b4c:	103ff91e 	bne	r2,zero,4013b34 <SendCMD+0x1f4>

   /* Receive command response */
   if (cmd == CMD12)
 4013b50:	e0bffd03 	ldbu	r2,-12(fp)
 4013b54:	10801318 	cmpnei	r2,r2,76
 4013b58:	1000011e 	bne	r2,zero,4013b60 <SendCMD+0x220>
      ReceiveU8();   /* Skip a stuff byte when stop reading */
 4013b5c:	401350c0 	call	401350c <ReceiveU8>

   n = 10;  /* Wait for a valid response in timeout of 10 attempts */
 4013b60:	00800284 	movi	r2,10
 4013b64:	e0bffc45 	stb	r2,-15(fp)
   do
   {
      res = ReceiveU8();
 4013b68:	401350c0 	call	401350c <ReceiveU8>
 4013b6c:	e0bffc05 	stb	r2,-16(fp)
   }
   while ((res & 0x80) && --n);
 4013b70:	e0bffc03 	ldbu	r2,-16(fp)
 4013b74:	10803fcc 	andi	r2,r2,255
 4013b78:	1080201c 	xori	r2,r2,128
 4013b7c:	10bfe004 	addi	r2,r2,-128
 4013b80:	1004403a 	cmpge	r2,r2,zero
 4013b84:	1000061e 	bne	r2,zero,4013ba0 <SendCMD+0x260>
 4013b88:	e0bffc43 	ldbu	r2,-15(fp)
 4013b8c:	10bfffc4 	addi	r2,r2,-1
 4013b90:	e0bffc45 	stb	r2,-15(fp)
 4013b94:	e0bffc43 	ldbu	r2,-15(fp)
 4013b98:	1004c03a 	cmpne	r2,r2,zero
 4013b9c:	103ff21e 	bne	r2,zero,4013b68 <SendCMD+0x228>

   return(res); /* Return with the response value */
 4013ba0:	e0bffc03 	ldbu	r2,-16(fp)
 4013ba4:	e0bfff15 	stw	r2,-4(fp)
 4013ba8:	e0bfff17 	ldw	r2,-4(fp)
} /* SendCMD */
 4013bac:	e037883a 	mov	sp,fp
 4013bb0:	dfc00117 	ldw	ra,4(sp)
 4013bb4:	df000017 	ldw	fp,0(sp)
 4013bb8:	dec00204 	addi	sp,sp,8
 4013bbc:	f800283a 	ret

04013bc0 <ffs_DiskIOInit>:
/*  In    : none                                                           */
/*  Out   : none                                                           */
/*  Return: FFS_OK                                                         */
/***************************************************************************/
FFS_RESULT ffs_DiskIOInit (void)
{
 4013bc0:	defffe04 	addi	sp,sp,-8
 4013bc4:	dfc00115 	stw	ra,4(sp)
 4013bc8:	df000015 	stw	fp,0(sp)
 4013bcc:	d839883a 	mov	fp,sp
   (void)XMITDummy;

   InitDiskIOHardware();
 4013bd0:	40134540 	call	4013454 <InitDiskIOHardware>

   return(FFS_OK);
 4013bd4:	0005883a 	mov	r2,zero
} /* ffs_DiskIOInit */
 4013bd8:	e037883a 	mov	sp,fp
 4013bdc:	dfc00117 	ldw	ra,4(sp)
 4013be0:	df000017 	ldw	fp,0(sp)
 4013be4:	dec00204 	addi	sp,sp,8
 4013be8:	f800283a 	ret

04013bec <ffs_DiskIOTimerproc>:
/*  In    : none                                                           */
/*  Out   : none                                                           */
/*  Return: none                                                           */
/***************************************************************************/
void ffs_DiskIOTimerproc (void)
{
 4013bec:	defffc04 	addi	sp,sp,-16
 4013bf0:	dfc00315 	stw	ra,12(sp)
 4013bf4:	df000215 	stw	fp,8(sp)
 4013bf8:	df000204 	addi	fp,sp,8
   static FFS_U32 pvm;
   FFS_U32 n;
   DSTATUS s;

   /* 100Hz decrement timer */
   n = Timer1;
 4013bfc:	d0a0dc8b 	ldhu	r2,-31886(gp)
 4013c00:	10bfffcc 	andi	r2,r2,65535
 4013c04:	e0bfff15 	stw	r2,-4(fp)
   if (n)
 4013c08:	e0bfff17 	ldw	r2,-4(fp)
 4013c0c:	1005003a 	cmpeq	r2,r2,zero
 4013c10:	1000051e 	bne	r2,zero,4013c28 <ffs_DiskIOTimerproc+0x3c>
      Timer1 = (FFS_U16)-- n;
 4013c14:	e0bfff17 	ldw	r2,-4(fp)
 4013c18:	10bfffc4 	addi	r2,r2,-1
 4013c1c:	e0bfff15 	stw	r2,-4(fp)
 4013c20:	e0bfff17 	ldw	r2,-4(fp)
 4013c24:	d0a0dc8d 	sth	r2,-31886(gp)
   n = Timer2;
 4013c28:	d0a0dd0b 	ldhu	r2,-31884(gp)
 4013c2c:	10bfffcc 	andi	r2,r2,65535
 4013c30:	e0bfff15 	stw	r2,-4(fp)
   if (n)
 4013c34:	e0bfff17 	ldw	r2,-4(fp)
 4013c38:	1005003a 	cmpeq	r2,r2,zero
 4013c3c:	1000051e 	bne	r2,zero,4013c54 <ffs_DiskIOTimerproc+0x68>
      Timer2 = (FFS_U16)-- n;
 4013c40:	e0bfff17 	ldw	r2,-4(fp)
 4013c44:	10bfffc4 	addi	r2,r2,-1
 4013c48:	e0bfff15 	stw	r2,-4(fp)
 4013c4c:	e0bfff17 	ldw	r2,-4(fp)
 4013c50:	d0a0dd0d 	sth	r2,-31884(gp)

   n = pvm;
 4013c54:	d0a0df17 	ldw	r2,-31876(gp)
 4013c58:	e0bfff15 	stw	r2,-4(fp)

   /* Sample socket switch */
   pvm = GetCDWP();
 4013c5c:	40138800 	call	4013880 <GetCDWP>
 4013c60:	d0a0df15 	stw	r2,-31876(gp)

   /* Have contacts stabled? */
   if (n == pvm)
 4013c64:	d0e0df17 	ldw	r3,-31876(gp)
 4013c68:	e0bfff17 	ldw	r2,-4(fp)
 4013c6c:	10c0211e 	bne	r2,r3,4013cf4 <ffs_DiskIOTimerproc+0x108>
   {
      s = Stat;
 4013c70:	d0a00203 	ldbu	r2,-32760(gp)
 4013c74:	e0bffe05 	stb	r2,-8(fp)

      /* Check write protect */
      if (pvm & SOCK_WP_ACTIVE)
 4013c78:	d0a0df17 	ldw	r2,-31876(gp)
 4013c7c:	1080008c 	andi	r2,r2,2
 4013c80:	1005003a 	cmpeq	r2,r2,zero
 4013c84:	1000041e 	bne	r2,zero,4013c98 <ffs_DiskIOTimerproc+0xac>
         s |= STA_PROTECT;
 4013c88:	e0bffe03 	ldbu	r2,-8(fp)
 4013c8c:	10800114 	ori	r2,r2,4
 4013c90:	e0bffe05 	stb	r2,-8(fp)
 4013c94:	00000406 	br	4013ca8 <ffs_DiskIOTimerproc+0xbc>
      else
         s &= ~STA_PROTECT;
 4013c98:	e0bffe03 	ldbu	r2,-8(fp)
 4013c9c:	00fffec4 	movi	r3,-5
 4013ca0:	10c4703a 	and	r2,r2,r3
 4013ca4:	e0bffe05 	stb	r2,-8(fp)

      /* Check socket empty */
      if (pvm & SOCK_CD_EMPTY)
 4013ca8:	d0a0df17 	ldw	r2,-31876(gp)
 4013cac:	1080004c 	andi	r2,r2,1
 4013cb0:	10803fcc 	andi	r2,r2,255
 4013cb4:	1005003a 	cmpeq	r2,r2,zero
 4013cb8:	1000041e 	bne	r2,zero,4013ccc <ffs_DiskIOTimerproc+0xe0>
         s |= (STA_NODISK | STA_NOINIT);
 4013cbc:	e0bffe03 	ldbu	r2,-8(fp)
 4013cc0:	108000d4 	ori	r2,r2,3
 4013cc4:	e0bffe05 	stb	r2,-8(fp)
 4013cc8:	00000406 	br	4013cdc <ffs_DiskIOTimerproc+0xf0>
      else
         s &= ~STA_NODISK;
 4013ccc:	e0bffe03 	ldbu	r2,-8(fp)
 4013cd0:	00ffff44 	movi	r3,-3
 4013cd4:	10c4703a 	and	r2,r2,r3
 4013cd8:	e0bffe05 	stb	r2,-8(fp)

#if (FFS_SUPPORT_HW_WP == 0)
      /* Ignore the write protect */
      s &= ~STA_PROTECT;
 4013cdc:	e0fffe03 	ldbu	r3,-8(fp)
 4013ce0:	00bffec4 	movi	r2,-5
 4013ce4:	1884703a 	and	r2,r3,r2
 4013ce8:	e0bffe05 	stb	r2,-8(fp)
#endif

      Stat = s;
 4013cec:	e0bffe03 	ldbu	r2,-8(fp)
 4013cf0:	d0a00205 	stb	r2,-32760(gp)
   }
} /* ffs_DiskIOTimerproc */
 4013cf4:	e037883a 	mov	sp,fp
 4013cf8:	dfc00117 	ldw	ra,4(sp)
 4013cfc:	df000017 	ldw	fp,0(sp)
 4013d00:	dec00204 	addi	sp,sp,8
 4013d04:	f800283a 	ret

04013d08 <ffs_DiskIOInitialize>:
/*  In    : Physical drive nmuber                                          */
/*  Out   : none                                                           */
/*  Return: DSTATUS                                                        */
/***************************************************************************/
DSTATUS ffs_DiskIOInitialize (FFS_U8 drv)
{
 4013d08:	defff904 	addi	sp,sp,-28
 4013d0c:	dfc00615 	stw	ra,24(sp)
 4013d10:	df000515 	stw	fp,20(sp)
 4013d14:	dc000415 	stw	r16,16(sp)
 4013d18:	df000404 	addi	fp,sp,16
 4013d1c:	e13ffe05 	stb	r4,-8(fp)
   FFS_U8 n, ty, cmd, ocr[4];

   (void)drv;

   if (Stat & STA_NODISK)  /* No card in the socket */
 4013d20:	d0a00203 	ldbu	r2,-32760(gp)
 4013d24:	10803fcc 	andi	r2,r2,255
 4013d28:	1080008c 	andi	r2,r2,2
 4013d2c:	1005003a 	cmpeq	r2,r2,zero
 4013d30:	1000041e 	bne	r2,zero,4013d44 <ffs_DiskIOInitialize+0x3c>
      return Stat;
 4013d34:	d0a00203 	ldbu	r2,-32760(gp)
 4013d38:	10803fcc 	andi	r2,r2,255
 4013d3c:	e0bfff15 	stw	r2,-4(fp)
 4013d40:	00009106 	br	4013f88 <ffs_DiskIOInitialize+0x280>

   /* low speed during init */
   SetLowSpeed();
 4013d44:	401339c0 	call	401339c <SetLowSpeed>

   POWER_ON(); /* Force socket power ON */
   for (n = 10; n; n--)
 4013d48:	00800284 	movi	r2,10
 4013d4c:	e0bffc85 	stb	r2,-14(fp)
 4013d50:	00000406 	br	4013d64 <ffs_DiskIOInitialize+0x5c>
      ReceiveU8();   /* 80 dummy clocks */
 4013d54:	401350c0 	call	401350c <ReceiveU8>

   /* low speed during init */
   SetLowSpeed();

   POWER_ON(); /* Force socket power ON */
   for (n = 10; n; n--)
 4013d58:	e0bffc83 	ldbu	r2,-14(fp)
 4013d5c:	10bfffc4 	addi	r2,r2,-1
 4013d60:	e0bffc85 	stb	r2,-14(fp)
 4013d64:	e0bffc83 	ldbu	r2,-14(fp)
 4013d68:	1004c03a 	cmpne	r2,r2,zero
 4013d6c:	103ff91e 	bne	r2,zero,4013d54 <ffs_DiskIOInitialize+0x4c>
      ReceiveU8();   /* 80 dummy clocks */

   ty = 0;
 4013d70:	e03ffc45 	stb	zero,-15(fp)
   if (SendCMD(CMD0, 0) == 1)
 4013d74:	01001004 	movi	r4,64
 4013d78:	000b883a 	mov	r5,zero
 4013d7c:	40139400 	call	4013940 <SendCMD>
 4013d80:	10803fcc 	andi	r2,r2,255
 4013d84:	10800058 	cmpnei	r2,r2,1
 4013d88:	1000711e 	bne	r2,zero,4013f50 <ffs_DiskIOInitialize+0x248>
   {  /* Enter Idle state */
      Timer1 = 100;  /* Initialization timeout of 1000 msec */
 4013d8c:	00801904 	movi	r2,100
 4013d90:	d0a0dc8d 	sth	r2,-31886(gp)
      if (SendCMD(CMD8, 0x1AA) == 1)
 4013d94:	01001204 	movi	r4,72
 4013d98:	01406a84 	movi	r5,426
 4013d9c:	40139400 	call	4013940 <SendCMD>
 4013da0:	10803fcc 	andi	r2,r2,255
 4013da4:	10800058 	cmpnei	r2,r2,1
 4013da8:	1000451e 	bne	r2,zero,4013ec0 <ffs_DiskIOInitialize+0x1b8>
      {  /* SDC ver 2.00 */
         for (n = 0; n < 4; n++)
 4013dac:	e03ffc85 	stb	zero,-14(fp)
 4013db0:	00000906 	br	4013dd8 <ffs_DiskIOInitialize+0xd0>
            ocr[n] = ReceiveU8();
 4013db4:	e43ffc83 	ldbu	r16,-14(fp)
 4013db8:	401350c0 	call	401350c <ReceiveU8>
 4013dbc:	1007883a 	mov	r3,r2
 4013dc0:	e0bffcc4 	addi	r2,fp,-13
 4013dc4:	1405883a 	add	r2,r2,r16
 4013dc8:	10c00005 	stb	r3,0(r2)
   if (SendCMD(CMD0, 0) == 1)
   {  /* Enter Idle state */
      Timer1 = 100;  /* Initialization timeout of 1000 msec */
      if (SendCMD(CMD8, 0x1AA) == 1)
      {  /* SDC ver 2.00 */
         for (n = 0; n < 4; n++)
 4013dcc:	e0bffc83 	ldbu	r2,-14(fp)
 4013dd0:	10800044 	addi	r2,r2,1
 4013dd4:	e0bffc85 	stb	r2,-14(fp)
 4013dd8:	e0bffc83 	ldbu	r2,-14(fp)
 4013ddc:	10800130 	cmpltui	r2,r2,4
 4013de0:	103ff41e 	bne	r2,zero,4013db4 <ffs_DiskIOInitialize+0xac>
            ocr[n] = ReceiveU8();
         if (ocr[2] == 0x01 && ocr[3] == 0xAA)
 4013de4:	e0bffd43 	ldbu	r2,-11(fp)
 4013de8:	10803fcc 	andi	r2,r2,255
 4013dec:	10800058 	cmpnei	r2,r2,1
 4013df0:	1000571e 	bne	r2,zero,4013f50 <ffs_DiskIOInitialize+0x248>
 4013df4:	e0bffd83 	ldbu	r2,-10(fp)
 4013df8:	10803fcc 	andi	r2,r2,255
 4013dfc:	10802a98 	cmpnei	r2,r2,170
 4013e00:	1000531e 	bne	r2,zero,4013f50 <ffs_DiskIOInitialize+0x248>
         {  /* The card can work at vdd range of 2.7-3.6V */
            while (Timer1 && SendCMD(ACMD41, 1UL << 30)) ;  /* ACMD41 with HCS bit */
 4013e04:	d0a0dc8b 	ldhu	r2,-31886(gp)
 4013e08:	10bfffcc 	andi	r2,r2,65535
 4013e0c:	1005003a 	cmpeq	r2,r2,zero
 4013e10:	1000061e 	bne	r2,zero,4013e2c <ffs_DiskIOInitialize+0x124>
 4013e14:	01003a44 	movi	r4,233
 4013e18:	01500034 	movhi	r5,16384
 4013e1c:	40139400 	call	4013940 <SendCMD>
 4013e20:	10803fcc 	andi	r2,r2,255
 4013e24:	1004c03a 	cmpne	r2,r2,zero
 4013e28:	103ff61e 	bne	r2,zero,4013e04 <ffs_DiskIOInitialize+0xfc>
            if (Timer1 && SendCMD(CMD58, 0) == 0)
 4013e2c:	d0a0dc8b 	ldhu	r2,-31886(gp)
 4013e30:	10bfffcc 	andi	r2,r2,65535
 4013e34:	1005003a 	cmpeq	r2,r2,zero
 4013e38:	1000451e 	bne	r2,zero,4013f50 <ffs_DiskIOInitialize+0x248>
 4013e3c:	01001e84 	movi	r4,122
 4013e40:	000b883a 	mov	r5,zero
 4013e44:	40139400 	call	4013940 <SendCMD>
 4013e48:	10803fcc 	andi	r2,r2,255
 4013e4c:	1004c03a 	cmpne	r2,r2,zero
 4013e50:	10003f1e 	bne	r2,zero,4013f50 <ffs_DiskIOInitialize+0x248>
            {  /* Check CCS bit */
               for (n = 0; n < 4; n++)
 4013e54:	e03ffc85 	stb	zero,-14(fp)
 4013e58:	00000906 	br	4013e80 <ffs_DiskIOInitialize+0x178>
                  ocr[n] = ReceiveU8();
 4013e5c:	e43ffc83 	ldbu	r16,-14(fp)
 4013e60:	401350c0 	call	401350c <ReceiveU8>
 4013e64:	1007883a 	mov	r3,r2
 4013e68:	e0bffcc4 	addi	r2,fp,-13
 4013e6c:	1405883a 	add	r2,r2,r16
 4013e70:	10c00005 	stb	r3,0(r2)
         if (ocr[2] == 0x01 && ocr[3] == 0xAA)
         {  /* The card can work at vdd range of 2.7-3.6V */
            while (Timer1 && SendCMD(ACMD41, 1UL << 30)) ;  /* ACMD41 with HCS bit */
            if (Timer1 && SendCMD(CMD58, 0) == 0)
            {  /* Check CCS bit */
               for (n = 0; n < 4; n++)
 4013e74:	e0bffc83 	ldbu	r2,-14(fp)
 4013e78:	10800044 	addi	r2,r2,1
 4013e7c:	e0bffc85 	stb	r2,-14(fp)
 4013e80:	e0bffc83 	ldbu	r2,-14(fp)
 4013e84:	10800130 	cmpltui	r2,r2,4
 4013e88:	103ff41e 	bne	r2,zero,4013e5c <ffs_DiskIOInitialize+0x154>
                  ocr[n] = ReceiveU8();
               ty = (ocr[0] & 0x40) ? CT_SD2 | CT_BLOCK : CT_SD2; /* Card id SDv2 */
 4013e8c:	e0bffcc3 	ldbu	r2,-13(fp)
 4013e90:	10803fcc 	andi	r2,r2,255
 4013e94:	1080100c 	andi	r2,r2,64
 4013e98:	1005003a 	cmpeq	r2,r2,zero
 4013e9c:	1000031e 	bne	r2,zero,4013eac <ffs_DiskIOInitialize+0x1a4>
 4013ea0:	00800304 	movi	r2,12
 4013ea4:	e0bffe45 	stb	r2,-7(fp)
 4013ea8:	00000206 	br	4013eb4 <ffs_DiskIOInitialize+0x1ac>
 4013eac:	00800104 	movi	r2,4
 4013eb0:	e0bffe45 	stb	r2,-7(fp)
 4013eb4:	e0bffe43 	ldbu	r2,-7(fp)
 4013eb8:	e0bffc45 	stb	r2,-15(fp)
 4013ebc:	00002406 	br	4013f50 <ffs_DiskIOInitialize+0x248>
            }
         }
      }
      else
      {  /* SDC ver 1.XX or MMC */
         if (SendCMD(ACMD41, 0) <= 1)
 4013ec0:	01003a44 	movi	r4,233
 4013ec4:	000b883a 	mov	r5,zero
 4013ec8:	40139400 	call	4013940 <SendCMD>
 4013ecc:	10803fcc 	andi	r2,r2,255
 4013ed0:	108000a8 	cmpgeui	r2,r2,2
 4013ed4:	1000051e 	bne	r2,zero,4013eec <ffs_DiskIOInitialize+0x1e4>
         {
            ty  = CT_SD1;
 4013ed8:	00800084 	movi	r2,2
 4013edc:	e0bffc45 	stb	r2,-15(fp)
            cmd = ACMD41;  /* SDC ver 1.XX */
 4013ee0:	00bffa44 	movi	r2,-23
 4013ee4:	e0bffc05 	stb	r2,-16(fp)
 4013ee8:	00000406 	br	4013efc <ffs_DiskIOInitialize+0x1f4>
         }
         else
         {
            ty  = CT_MMC;
 4013eec:	00800044 	movi	r2,1
 4013ef0:	e0bffc45 	stb	r2,-15(fp)
            cmd = CMD1; /* MMC */
 4013ef4:	00801044 	movi	r2,65
 4013ef8:	e0bffc05 	stb	r2,-16(fp)
         }
         while (Timer1 && SendCMD(cmd, 0)) ; /* Wait for leaving idle state */
 4013efc:	d0a0dc8b 	ldhu	r2,-31886(gp)
 4013f00:	10bfffcc 	andi	r2,r2,65535
 4013f04:	1005003a 	cmpeq	r2,r2,zero
 4013f08:	1000061e 	bne	r2,zero,4013f24 <ffs_DiskIOInitialize+0x21c>
 4013f0c:	e13ffc03 	ldbu	r4,-16(fp)
 4013f10:	000b883a 	mov	r5,zero
 4013f14:	40139400 	call	4013940 <SendCMD>
 4013f18:	10803fcc 	andi	r2,r2,255
 4013f1c:	1004c03a 	cmpne	r2,r2,zero
 4013f20:	103ff61e 	bne	r2,zero,4013efc <ffs_DiskIOInitialize+0x1f4>
         if (!Timer1 || SendCMD(CMD16, 512) != 0)  /* Select R/W block length */
 4013f24:	d0a0dc8b 	ldhu	r2,-31886(gp)
 4013f28:	10bfffcc 	andi	r2,r2,65535
 4013f2c:	1005003a 	cmpeq	r2,r2,zero
 4013f30:	1000061e 	bne	r2,zero,4013f4c <ffs_DiskIOInitialize+0x244>
 4013f34:	01001404 	movi	r4,80
 4013f38:	01408004 	movi	r5,512
 4013f3c:	40139400 	call	4013940 <SendCMD>
 4013f40:	10803fcc 	andi	r2,r2,255
 4013f44:	1005003a 	cmpeq	r2,r2,zero
 4013f48:	1000011e 	bne	r2,zero,4013f50 <ffs_DiskIOInitialize+0x248>
            ty = 0;
 4013f4c:	e03ffc45 	stb	zero,-15(fp)
      }
   }
   CardType = ty;
 4013f50:	e0bffc43 	ldbu	r2,-15(fp)
 4013f54:	d0a0dc05 	stb	r2,-31888(gp)
   ReleaseBus();
 4013f58:	40138fc0 	call	40138fc <ReleaseBus>

   if (ty)
 4013f5c:	e0bffc43 	ldbu	r2,-15(fp)
 4013f60:	1005003a 	cmpeq	r2,r2,zero
 4013f64:	1000051e 	bne	r2,zero,4013f7c <ffs_DiskIOInitialize+0x274>
   {  /* Initialization succeded */
      Stat &= ~STA_NOINIT; /* Clear STA_NOINIT */
 4013f68:	d0e00203 	ldbu	r3,-32760(gp)
 4013f6c:	00bfff84 	movi	r2,-2
 4013f70:	1884703a 	and	r2,r3,r2
 4013f74:	d0a00205 	stb	r2,-32760(gp)

      SetHighSpeed();
 4013f78:	40133e80 	call	40133e8 <SetHighSpeed>
   else
   {  /* Initialization failed */
      POWER_OFF();
   }

   return(Stat);
 4013f7c:	d0a00203 	ldbu	r2,-32760(gp)
 4013f80:	10803fcc 	andi	r2,r2,255
 4013f84:	e0bfff15 	stw	r2,-4(fp)
 4013f88:	e0bfff17 	ldw	r2,-4(fp)
} /* ffs_DiskIOInitialize */
 4013f8c:	e037883a 	mov	sp,fp
 4013f90:	dfc00217 	ldw	ra,8(sp)
 4013f94:	df000117 	ldw	fp,4(sp)
 4013f98:	dc000017 	ldw	r16,0(sp)
 4013f9c:	dec00304 	addi	sp,sp,12
 4013fa0:	f800283a 	ret

04013fa4 <ffs_DiskIOStatus>:
/*  In    : Physical drive nmuber                                          */
/*  Out   : none                                                           */
/*  Return: DSTATUS                                                        */
/***************************************************************************/
DSTATUS ffs_DiskIOStatus (FFS_U8 drv)
{
 4013fa4:	defffe04 	addi	sp,sp,-8
 4013fa8:	df000115 	stw	fp,4(sp)
 4013fac:	df000104 	addi	fp,sp,4
 4013fb0:	e13fff05 	stb	r4,-4(fp)
   (void)drv;

   return(Stat);
 4013fb4:	d0a00203 	ldbu	r2,-32760(gp)
 4013fb8:	10803fcc 	andi	r2,r2,255
} /* ffs_DiskIOStatus */
 4013fbc:	e037883a 	mov	sp,fp
 4013fc0:	df000017 	ldw	fp,0(sp)
 4013fc4:	dec00104 	addi	sp,sp,4
 4013fc8:	f800283a 	ret

04013fcc <ffs_DiskIORead>:
/*                                                                         */
/*  Out   : buff                                                           */
/*  Return: DRESULT                                                        */
/***************************************************************************/
DRESULT ffs_DiskIORead (FFS_U8 drv, FFS_U8 * buff, FFS_U32 sector, FFS_U8 count)
{
 4013fcc:	defff904 	addi	sp,sp,-28
 4013fd0:	dfc00615 	stw	ra,24(sp)
 4013fd4:	df000515 	stw	fp,20(sp)
 4013fd8:	df000504 	addi	fp,sp,20
 4013fdc:	e17ffc15 	stw	r5,-16(fp)
 4013fe0:	e1bffd15 	stw	r6,-12(fp)
 4013fe4:	e13ffb05 	stb	r4,-20(fp)
 4013fe8:	e1fffe05 	stb	r7,-8(fp)
   (void)drv;

   if (!count)
 4013fec:	e0bffe03 	ldbu	r2,-8(fp)
 4013ff0:	1004c03a 	cmpne	r2,r2,zero
 4013ff4:	1000031e 	bne	r2,zero,4014004 <ffs_DiskIORead+0x38>
      return RES_PARERR;
 4013ff8:	00800104 	movi	r2,4
 4013ffc:	e0bfff15 	stw	r2,-4(fp)
 4014000:	00003c06 	br	40140f4 <ffs_DiskIORead+0x128>
   if (Stat & STA_NOINIT)
 4014004:	d0a00203 	ldbu	r2,-32760(gp)
 4014008:	10803fcc 	andi	r2,r2,255
 401400c:	1080004c 	andi	r2,r2,1
 4014010:	10803fcc 	andi	r2,r2,255
 4014014:	1005003a 	cmpeq	r2,r2,zero
 4014018:	1000031e 	bne	r2,zero,4014028 <ffs_DiskIORead+0x5c>
      return RES_NOTRDY;
 401401c:	008000c4 	movi	r2,3
 4014020:	e0bfff15 	stw	r2,-4(fp)
 4014024:	00003306 	br	40140f4 <ffs_DiskIORead+0x128>

   if (!(CardType & CT_BLOCK))
 4014028:	d0a0dc03 	ldbu	r2,-31888(gp)
 401402c:	10803fcc 	andi	r2,r2,255
 4014030:	1080020c 	andi	r2,r2,8
 4014034:	1004c03a 	cmpne	r2,r2,zero
 4014038:	1000031e 	bne	r2,zero,4014048 <ffs_DiskIORead+0x7c>
      sector *= 512; /* Convert LBA to byte address if needed */
 401403c:	e0bffd17 	ldw	r2,-12(fp)
 4014040:	1004927a 	slli	r2,r2,9
 4014044:	e0bffd15 	stw	r2,-12(fp)

   if (count == 1)
 4014048:	e0bffe03 	ldbu	r2,-8(fp)
 401404c:	10800058 	cmpnei	r2,r2,1
 4014050:	10000d1e 	bne	r2,zero,4014088 <ffs_DiskIORead+0xbc>
   {  /* Single block read */
      if ((SendCMD(CMD17, sector) == 0)   /* READ_SINGLE_BLOCK */
 4014054:	01001444 	movi	r4,81
 4014058:	e17ffd17 	ldw	r5,-12(fp)
 401405c:	40139400 	call	4013940 <SendCMD>
 4014060:	10803fcc 	andi	r2,r2,255
 4014064:	1004c03a 	cmpne	r2,r2,zero
 4014068:	10001e1e 	bne	r2,zero,40140e4 <ffs_DiskIORead+0x118>
 401406c:	e13ffc17 	ldw	r4,-16(fp)
 4014070:	01408004 	movi	r5,512
 4014074:	40135640 	call	4013564 <ReceiveDatablock>
 4014078:	1005003a 	cmpeq	r2,r2,zero
 401407c:	1000191e 	bne	r2,zero,40140e4 <ffs_DiskIORead+0x118>
          && ReceiveDatablock(buff, 512))
         count = 0;
 4014080:	e03ffe05 	stb	zero,-8(fp)
 4014084:	00001706 	br	40140e4 <ffs_DiskIORead+0x118>
   }
   else
   {  /* Multiple block read */
      if (SendCMD(CMD18, sector) == 0)
 4014088:	01001484 	movi	r4,82
 401408c:	e17ffd17 	ldw	r5,-12(fp)
 4014090:	40139400 	call	4013940 <SendCMD>
 4014094:	10803fcc 	andi	r2,r2,255
 4014098:	1004c03a 	cmpne	r2,r2,zero
 401409c:	1000111e 	bne	r2,zero,40140e4 <ffs_DiskIORead+0x118>
      {  /* READ_MULTIPLE_BLOCK */
         do
         {
            if (!ReceiveDatablock(buff, 512))
 40140a0:	e13ffc17 	ldw	r4,-16(fp)
 40140a4:	01408004 	movi	r5,512
 40140a8:	40135640 	call	4013564 <ReceiveDatablock>
 40140ac:	1005003a 	cmpeq	r2,r2,zero
 40140b0:	1000091e 	bne	r2,zero,40140d8 <ffs_DiskIORead+0x10c>
               break;
            buff += 512;
 40140b4:	e0bffc17 	ldw	r2,-16(fp)
 40140b8:	10808004 	addi	r2,r2,512
 40140bc:	e0bffc15 	stw	r2,-16(fp)
         }
         while (--count);
 40140c0:	e0bffe03 	ldbu	r2,-8(fp)
 40140c4:	10bfffc4 	addi	r2,r2,-1
 40140c8:	e0bffe05 	stb	r2,-8(fp)
 40140cc:	e0bffe03 	ldbu	r2,-8(fp)
 40140d0:	1004c03a 	cmpne	r2,r2,zero
 40140d4:	103ff21e 	bne	r2,zero,40140a0 <ffs_DiskIORead+0xd4>
         SendCMD(CMD12, 0);   /* STOP_TRANSMISSION */
 40140d8:	01001304 	movi	r4,76
 40140dc:	000b883a 	mov	r5,zero
 40140e0:	40139400 	call	4013940 <SendCMD>
      }
   }
   ReleaseBus();
 40140e4:	40138fc0 	call	40138fc <ReleaseBus>

   return(count ? RES_ERROR : RES_OK);
 40140e8:	e0bffe03 	ldbu	r2,-8(fp)
 40140ec:	1004c03a 	cmpne	r2,r2,zero
 40140f0:	e0bfff15 	stw	r2,-4(fp)
 40140f4:	e0bfff17 	ldw	r2,-4(fp)
} /* ffs_DiskIORead */
 40140f8:	e037883a 	mov	sp,fp
 40140fc:	dfc00117 	ldw	ra,4(sp)
 4014100:	df000017 	ldw	fp,0(sp)
 4014104:	dec00204 	addi	sp,sp,8
 4014108:	f800283a 	ret

0401410c <ffs_DiskIOWrite>:
/*                                                                         */
/*  Out   : buff                                                           */
/*  Return: DRESULT                                                        */
/***************************************************************************/
DRESULT ffs_DiskIOWrite (FFS_U8 drv, const FFS_U8 * buff, FFS_U32 sector, FFS_U8 count)
{
 401410c:	defff904 	addi	sp,sp,-28
 4014110:	dfc00615 	stw	ra,24(sp)
 4014114:	df000515 	stw	fp,20(sp)
 4014118:	df000504 	addi	fp,sp,20
 401411c:	e17ffc15 	stw	r5,-16(fp)
 4014120:	e1bffd15 	stw	r6,-12(fp)
 4014124:	e13ffb05 	stb	r4,-20(fp)
 4014128:	e1fffe05 	stb	r7,-8(fp)
   (void)drv;

   if (!count)
 401412c:	e0bffe03 	ldbu	r2,-8(fp)
 4014130:	1004c03a 	cmpne	r2,r2,zero
 4014134:	1000031e 	bne	r2,zero,4014144 <ffs_DiskIOWrite+0x38>
      return RES_PARERR;
 4014138:	00800104 	movi	r2,4
 401413c:	e0bfff15 	stw	r2,-4(fp)
 4014140:	00005306 	br	4014290 <ffs_DiskIOWrite+0x184>
   if (Stat & STA_NOINIT)
 4014144:	d0a00203 	ldbu	r2,-32760(gp)
 4014148:	10803fcc 	andi	r2,r2,255
 401414c:	1080004c 	andi	r2,r2,1
 4014150:	10803fcc 	andi	r2,r2,255
 4014154:	1005003a 	cmpeq	r2,r2,zero
 4014158:	1000031e 	bne	r2,zero,4014168 <ffs_DiskIOWrite+0x5c>
      return RES_NOTRDY;
 401415c:	008000c4 	movi	r2,3
 4014160:	e0bfff15 	stw	r2,-4(fp)
 4014164:	00004a06 	br	4014290 <ffs_DiskIOWrite+0x184>
   if (Stat & STA_PROTECT)
 4014168:	d0a00203 	ldbu	r2,-32760(gp)
 401416c:	10803fcc 	andi	r2,r2,255
 4014170:	1080010c 	andi	r2,r2,4
 4014174:	1005003a 	cmpeq	r2,r2,zero
 4014178:	1000031e 	bne	r2,zero,4014188 <ffs_DiskIOWrite+0x7c>
      return RES_WRPRT;
 401417c:	00800084 	movi	r2,2
 4014180:	e0bfff15 	stw	r2,-4(fp)
 4014184:	00004206 	br	4014290 <ffs_DiskIOWrite+0x184>

   if (!(CardType & CT_BLOCK))
 4014188:	d0a0dc03 	ldbu	r2,-31888(gp)
 401418c:	10803fcc 	andi	r2,r2,255
 4014190:	1080020c 	andi	r2,r2,8
 4014194:	1004c03a 	cmpne	r2,r2,zero
 4014198:	1000031e 	bne	r2,zero,40141a8 <ffs_DiskIOWrite+0x9c>
      sector *= 512; /* Convert LBA to byte address if needed */
 401419c:	e0bffd17 	ldw	r2,-12(fp)
 40141a0:	1004927a 	slli	r2,r2,9
 40141a4:	e0bffd15 	stw	r2,-12(fp)

   if (count == 1)
 40141a8:	e0bffe03 	ldbu	r2,-8(fp)
 40141ac:	10800058 	cmpnei	r2,r2,1
 40141b0:	10000d1e 	bne	r2,zero,40141e8 <ffs_DiskIOWrite+0xdc>
   {  /* Single block write */
      if ((SendCMD(CMD24, sector) == 0)   /* WRITE_BLOCK */
 40141b4:	01001604 	movi	r4,88
 40141b8:	e17ffd17 	ldw	r5,-12(fp)
 40141bc:	40139400 	call	4013940 <SendCMD>
 40141c0:	10803fcc 	andi	r2,r2,255
 40141c4:	1004c03a 	cmpne	r2,r2,zero
 40141c8:	10002d1e 	bne	r2,zero,4014280 <ffs_DiskIOWrite+0x174>
 40141cc:	e13ffc17 	ldw	r4,-16(fp)
 40141d0:	01403f84 	movi	r5,254
 40141d4:	401372c0 	call	401372c <TransmitDatablock>
 40141d8:	1005003a 	cmpeq	r2,r2,zero
 40141dc:	1000281e 	bne	r2,zero,4014280 <ffs_DiskIOWrite+0x174>
          && TransmitDatablock(buff, 0xFE))
         count = 0;
 40141e0:	e03ffe05 	stb	zero,-8(fp)
 40141e4:	00002606 	br	4014280 <ffs_DiskIOWrite+0x174>
   }
   else
   {  /* Multiple block write */
      if (CardType & CT_SDC)
 40141e8:	d0a0dc03 	ldbu	r2,-31888(gp)
 40141ec:	10803fcc 	andi	r2,r2,255
 40141f0:	1080018c 	andi	r2,r2,6
 40141f4:	1005003a 	cmpeq	r2,r2,zero
 40141f8:	1000061e 	bne	r2,zero,4014214 <ffs_DiskIOWrite+0x108>
      {
         SendCMD(CMD55, 0);
 40141fc:	01001dc4 	movi	r4,119
 4014200:	000b883a 	mov	r5,zero
 4014204:	40139400 	call	4013940 <SendCMD>
         SendCMD(CMD23, count);  /* ACMD23 */
 4014208:	e17ffe03 	ldbu	r5,-8(fp)
 401420c:	010015c4 	movi	r4,87
 4014210:	40139400 	call	4013940 <SendCMD>
      }
      if (SendCMD(CMD25, sector) == 0)
 4014214:	01001644 	movi	r4,89
 4014218:	e17ffd17 	ldw	r5,-12(fp)
 401421c:	40139400 	call	4013940 <SendCMD>
 4014220:	10803fcc 	andi	r2,r2,255
 4014224:	1004c03a 	cmpne	r2,r2,zero
 4014228:	1000151e 	bne	r2,zero,4014280 <ffs_DiskIOWrite+0x174>
      {  /* WRITE_MULTIPLE_BLOCK */
         do
         {
            if (!TransmitDatablock(buff, 0xFC))
 401422c:	e13ffc17 	ldw	r4,-16(fp)
 4014230:	01403f04 	movi	r5,252
 4014234:	401372c0 	call	401372c <TransmitDatablock>
 4014238:	1005003a 	cmpeq	r2,r2,zero
 401423c:	1000091e 	bne	r2,zero,4014264 <ffs_DiskIOWrite+0x158>
               break;
            buff += 512;
 4014240:	e0bffc17 	ldw	r2,-16(fp)
 4014244:	10808004 	addi	r2,r2,512
 4014248:	e0bffc15 	stw	r2,-16(fp)
         }
         while (--count);
 401424c:	e0bffe03 	ldbu	r2,-8(fp)
 4014250:	10bfffc4 	addi	r2,r2,-1
 4014254:	e0bffe05 	stb	r2,-8(fp)
 4014258:	e0bffe03 	ldbu	r2,-8(fp)
 401425c:	1004c03a 	cmpne	r2,r2,zero
 4014260:	103ff21e 	bne	r2,zero,401422c <ffs_DiskIOWrite+0x120>
         if (!TransmitDatablock(0, 0xFD)) /* STOP_TRAN token */
 4014264:	0009883a 	mov	r4,zero
 4014268:	01403f44 	movi	r5,253
 401426c:	401372c0 	call	401372c <TransmitDatablock>
 4014270:	1004c03a 	cmpne	r2,r2,zero
 4014274:	1000021e 	bne	r2,zero,4014280 <ffs_DiskIOWrite+0x174>
            count = 1;
 4014278:	00800044 	movi	r2,1
 401427c:	e0bffe05 	stb	r2,-8(fp)
      }
   }
   ReleaseBus();
 4014280:	40138fc0 	call	40138fc <ReleaseBus>

   return(count ? RES_ERROR : RES_OK);
 4014284:	e0bffe03 	ldbu	r2,-8(fp)
 4014288:	1004c03a 	cmpne	r2,r2,zero
 401428c:	e0bfff15 	stw	r2,-4(fp)
 4014290:	e0bfff17 	ldw	r2,-4(fp)
} /* ffs_DiskIOWrite */
 4014294:	e037883a 	mov	sp,fp
 4014298:	dfc00117 	ldw	ra,4(sp)
 401429c:	df000017 	ldw	fp,0(sp)
 40142a0:	dec00204 	addi	sp,sp,8
 40142a4:	f800283a 	ret

040142a8 <ffs_DiskIOIoctl>:
/*                                                                         */
/*  Out   : buff                                                           */
/*  Return: DRESULT                                                        */
/***************************************************************************/
DRESULT ffs_DiskIOIoctl (FFS_U8 drv, FFS_U8 ctrl, void *buff)
{
 40142a8:	defff004 	addi	sp,sp,-64
 40142ac:	dfc00f15 	stw	ra,60(sp)
 40142b0:	df000e15 	stw	fp,56(sp)
 40142b4:	dc000d15 	stw	r16,52(sp)
 40142b8:	df000d04 	addi	fp,sp,52
 40142bc:	e1bffd15 	stw	r6,-12(fp)
 40142c0:	e13ffb05 	stb	r4,-20(fp)
 40142c4:	e17ffc05 	stb	r5,-16(fp)
   DRESULT res;
   FFS_U8 n, csd[16], *ptr = buff;
 40142c8:	e0bffd17 	ldw	r2,-12(fp)
 40142cc:	e0bff415 	stw	r2,-48(fp)
   FFS_U16 csize;

   (void)drv;

   if (Stat & STA_NOINIT)
 40142d0:	d0a00203 	ldbu	r2,-32760(gp)
 40142d4:	10803fcc 	andi	r2,r2,255
 40142d8:	1080004c 	andi	r2,r2,1
 40142dc:	10803fcc 	andi	r2,r2,255
 40142e0:	1005003a 	cmpeq	r2,r2,zero
 40142e4:	1000031e 	bne	r2,zero,40142f4 <ffs_DiskIOIoctl+0x4c>
      return RES_NOTRDY;
 40142e8:	008000c4 	movi	r2,3
 40142ec:	e0bfff15 	stw	r2,-4(fp)
 40142f0:	00011f06 	br	4014770 <ffs_DiskIOIoctl+0x4c8>

   res = RES_ERROR;
 40142f4:	00800044 	movi	r2,1
 40142f8:	e0bff615 	stw	r2,-40(fp)
   switch (ctrl)
 40142fc:	e0fffc03 	ldbu	r3,-16(fp)
 4014300:	e0fffe15 	stw	r3,-8(fp)
 4014304:	e13ffe17 	ldw	r4,-8(fp)
 4014308:	208003e8 	cmpgeui	r2,r4,15
 401430c:	1001131e 	bne	r2,zero,401475c <ffs_DiskIOIoctl+0x4b4>
 4014310:	e0fffe17 	ldw	r3,-8(fp)
 4014314:	e0fffe17 	ldw	r3,-8(fp)
 4014318:	18c5883a 	add	r2,r3,r3
 401431c:	1087883a 	add	r3,r2,r2
 4014320:	00810074 	movhi	r2,1025
 4014324:	1090cd04 	addi	r2,r2,17204
 4014328:	1885883a 	add	r2,r3,r2
 401432c:	10800017 	ldw	r2,0(r2)
 4014330:	1000683a 	jmp	r2
 4014334:	04014370 	cmpltui	r16,zero,1293
 4014338:	040143a8 	cmpgeui	r16,zero,1294
 401433c:	040144c0 	call	40144c <__alt_mem_sdram-0x1bfebb4>
 4014340:	040144d4 	movui	r16,1299
 4014344:	0401475c 	xori	r16,zero,1309
 4014348:	0401475c 	xori	r16,zero,1309
 401434c:	0401475c 	xori	r16,zero,1309
 4014350:	0401475c 	xori	r16,zero,1309
 4014354:	0401475c 	xori	r16,zero,1309
 4014358:	0401475c 	xori	r16,zero,1309
 401435c:	0401464c 	andi	r16,zero,1305
 4014360:	04014660 	cmpeqi	r16,zero,1305
 4014364:	04014694 	movui	r16,1306
 4014368:	040146c8 	cmpgei	r16,zero,1307
 401436c:	04014724 	muli	r16,zero,1308
   {
      case CTRL_SYNC:  /* Make sure that pending write process has been finished */
         SELECT();
 4014370:	d0e0de0b 	ldhu	r3,-31880(gp)
 4014374:	00bfff84 	movi	r2,-2
 4014378:	1884703a 	and	r2,r3,r2
 401437c:	d0a0de0d 	sth	r2,-31880(gp)
 4014380:	00e100b4 	movhi	r3,33794
 4014384:	18c42904 	addi	r3,r3,4260
 4014388:	d0a0de0b 	ldhu	r2,-31880(gp)
 401438c:	1880000d 	sth	r2,0(r3)
         if (WaitReady() == 0xFF)
 4014390:	40138a40 	call	40138a4 <WaitReady>
 4014394:	10803fcc 	andi	r2,r2,255
 4014398:	10803fd8 	cmpnei	r2,r2,255
 401439c:	1000f11e 	bne	r2,zero,4014764 <ffs_DiskIOIoctl+0x4bc>
            res = RES_OK;
 40143a0:	e03ff615 	stw	zero,-40(fp)
         break;
 40143a4:	0000ef06 	br	4014764 <ffs_DiskIOIoctl+0x4bc>

      case GET_SECTOR_COUNT: /* Get number of sectors on the disk (DWORD) */
         if ((SendCMD(CMD9, 0) == 0) && ReceiveDatablock(csd, 16))
 40143a8:	01001244 	movi	r4,73
 40143ac:	000b883a 	mov	r5,zero
 40143b0:	40139400 	call	4013940 <SendCMD>
 40143b4:	10803fcc 	andi	r2,r2,255
 40143b8:	1004c03a 	cmpne	r2,r2,zero
 40143bc:	1000e91e 	bne	r2,zero,4014764 <ffs_DiskIOIoctl+0x4bc>
 40143c0:	e13ff704 	addi	r4,fp,-36
 40143c4:	01400404 	movi	r5,16
 40143c8:	40135640 	call	4013564 <ReceiveDatablock>
 40143cc:	1005003a 	cmpeq	r2,r2,zero
 40143d0:	1000e41e 	bne	r2,zero,4014764 <ffs_DiskIOIoctl+0x4bc>
         {
            if ((csd[0] >> 6) == 1)
 40143d4:	e0bff703 	ldbu	r2,-36(fp)
 40143d8:	10803fcc 	andi	r2,r2,255
 40143dc:	1004d1ba 	srli	r2,r2,6
 40143e0:	10803fcc 	andi	r2,r2,255
 40143e4:	10800058 	cmpnei	r2,r2,1
 40143e8:	10000d1e 	bne	r2,zero,4014420 <ffs_DiskIOIoctl+0x178>
            {  /* SDC ver 2.00 */
               //@@MF csize = csd[9] + ((FFS_U16)csd[8] << 8) + 1;
               csize = (FFS_U16) ((FFS_U16) csd[9] | ((FFS_U16) csd[8] << 8)) + 1;
 40143ec:	e0bff943 	ldbu	r2,-27(fp)
 40143f0:	10c03fcc 	andi	r3,r2,255
 40143f4:	e0bff903 	ldbu	r2,-28(fp)
 40143f8:	10803fcc 	andi	r2,r2,255
 40143fc:	1004923a 	slli	r2,r2,8
 4014400:	1884b03a 	or	r2,r3,r2
 4014404:	10800044 	addi	r2,r2,1
 4014408:	e0bff30d 	sth	r2,-52(fp)
               *(FFS_U32 *) buff = (FFS_U32) csize << 10;
 401440c:	e0fffd17 	ldw	r3,-12(fp)
 4014410:	e0bff30b 	ldhu	r2,-52(fp)
 4014414:	100492ba 	slli	r2,r2,10
 4014418:	18800015 	stw	r2,0(r3)
 401441c:	00002606 	br	40144b8 <ffs_DiskIOIoctl+0x210>
            }
            else
            {  /* MMC or SDC ver 1.XX */
               n = (csd[5] & 15) + ((csd[10] & 128) >> 7) + ((csd[9] & 3) << 1) + 2;
 4014420:	e0bff843 	ldbu	r2,-31(fp)
 4014424:	108003cc 	andi	r2,r2,15
 4014428:	1007883a 	mov	r3,r2
 401442c:	e0bff983 	ldbu	r2,-26(fp)
 4014430:	10803fcc 	andi	r2,r2,255
 4014434:	1080200c 	andi	r2,r2,128
 4014438:	1005d1fa 	srai	r2,r2,7
 401443c:	1885883a 	add	r2,r3,r2
 4014440:	1007883a 	mov	r3,r2
 4014444:	e0bff943 	ldbu	r2,-27(fp)
 4014448:	108000cc 	andi	r2,r2,3
 401444c:	1085883a 	add	r2,r2,r2
 4014450:	1885883a 	add	r2,r3,r2
 4014454:	10800084 	addi	r2,r2,2
 4014458:	e0bff505 	stb	r2,-44(fp)
               csize = (csd[8] >> 6) + ((FFS_U16) csd[7] << 2) + ((FFS_U16) (csd[6] & 3) << 10) + 1;
 401445c:	e0bff903 	ldbu	r2,-28(fp)
 4014460:	10803fcc 	andi	r2,r2,255
 4014464:	1004d1ba 	srli	r2,r2,6
 4014468:	10c03fcc 	andi	r3,r2,255
 401446c:	e0bff8c3 	ldbu	r2,-29(fp)
 4014470:	10803fcc 	andi	r2,r2,255
 4014474:	1085883a 	add	r2,r2,r2
 4014478:	1085883a 	add	r2,r2,r2
 401447c:	1885883a 	add	r2,r3,r2
 4014480:	1007883a 	mov	r3,r2
 4014484:	e0bff883 	ldbu	r2,-30(fp)
 4014488:	10803fcc 	andi	r2,r2,255
 401448c:	108000cc 	andi	r2,r2,3
 4014490:	100492ba 	slli	r2,r2,10
 4014494:	1885883a 	add	r2,r3,r2
 4014498:	10800044 	addi	r2,r2,1
 401449c:	e0bff30d 	sth	r2,-52(fp)
               *(FFS_U32 *) buff = (FFS_U32) csize << (n - 9);
 40144a0:	e13ffd17 	ldw	r4,-12(fp)
 40144a4:	e0fff30b 	ldhu	r3,-52(fp)
 40144a8:	e0bff503 	ldbu	r2,-44(fp)
 40144ac:	10bffdc4 	addi	r2,r2,-9
 40144b0:	1884983a 	sll	r2,r3,r2
 40144b4:	20800015 	stw	r2,0(r4)
            }
            res = RES_OK;
 40144b8:	e03ff615 	stw	zero,-40(fp)
         }
         break;
 40144bc:	0000a906 	br	4014764 <ffs_DiskIOIoctl+0x4bc>

      case GET_SECTOR_SIZE:  /* Get sectors on the disk (WORD) */
         *(FFS_U16 *) buff = 512;
 40144c0:	e0fffd17 	ldw	r3,-12(fp)
 40144c4:	00808004 	movi	r2,512
 40144c8:	1880000d 	sth	r2,0(r3)
         res = RES_OK;
 40144cc:	e03ff615 	stw	zero,-40(fp)
         break;
 40144d0:	0000a406 	br	4014764 <ffs_DiskIOIoctl+0x4bc>

      case GET_BLOCK_SIZE:   /* Get erase block size in unit of sectors (DWORD) */
         if (CardType & CT_SD2)
 40144d4:	d0a0dc03 	ldbu	r2,-31888(gp)
 40144d8:	10803fcc 	andi	r2,r2,255
 40144dc:	1080010c 	andi	r2,r2,4
 40144e0:	1005003a 	cmpeq	r2,r2,zero
 40144e4:	1000201e 	bne	r2,zero,4014568 <ffs_DiskIOIoctl+0x2c0>
         {  /* SDC ver 2.00 */
            if (SendCMD(ACMD13, 0) == 0)
 40144e8:	01003344 	movi	r4,205
 40144ec:	000b883a 	mov	r5,zero
 40144f0:	40139400 	call	4013940 <SendCMD>
 40144f4:	10803fcc 	andi	r2,r2,255
 40144f8:	1004c03a 	cmpne	r2,r2,zero
 40144fc:	1000991e 	bne	r2,zero,4014764 <ffs_DiskIOIoctl+0x4bc>
            {  /* Read SD status */
               ReceiveU8();
 4014500:	401350c0 	call	401350c <ReceiveU8>
               if (ReceiveDatablock(csd, 16))
 4014504:	e13ff704 	addi	r4,fp,-36
 4014508:	01400404 	movi	r5,16
 401450c:	40135640 	call	4013564 <ReceiveDatablock>
 4014510:	1005003a 	cmpeq	r2,r2,zero
 4014514:	1000931e 	bne	r2,zero,4014764 <ffs_DiskIOIoctl+0x4bc>
               {  /* Read partial block */
                  for (n = 64 - 16; n; n--)
 4014518:	00800c04 	movi	r2,48
 401451c:	e0bff505 	stb	r2,-44(fp)
 4014520:	00000406 	br	4014534 <ffs_DiskIOIoctl+0x28c>
                     ReceiveU8();   /* Purge trailing data */
